

Microchip MPLAB XC8 Assembler V2.40 build 20220703182018 
                                                                                               Thu Jan 18 09:41:44 2024

Microchip MPLAB XC8 C Compiler v2.40 (Free license) build 20220703182018 Og1 
     1                           	processor	16F18015
     2                           	pagewidth 120
     3                           	opt	flic
     4                           	psect	stringtext1,global,class=STRCODE,delta=2,noexec
     5                           	psect	stringtext2,global,class=STRCODE,delta=2,noexec
     6                           	psect	cinit,global,class=CODE,merge=1,delta=2
     7                           	psect	cstackCOMMON,global,class=COMMON,space=1,delta=1,noexec
     8                           	psect	cstackBANK0,global,class=BANK0,space=1,delta=1,noexec
     9                           	psect	maintext,global,class=CODE,merge=1,split=1,delta=2
    10                           	psect	text1,local,class=CODE,merge=1,delta=2,group=1
    11                           	psect	text2,local,class=CODE,merge=1,delta=2,group=1
    12                           	psect	text3,local,class=CODE,merge=1,delta=2,group=1
    13                           	psect	text4,local,class=CODE,merge=1,delta=2,group=1
    14                           	psect	text5,local,class=CODE,merge=1,delta=2
    15                           	psect	text6,local,class=CODE,merge=1,delta=2
    16                           	psect	text7,local,class=CODE,merge=1,delta=2
    17                           	psect	text8,local,class=CODE,merge=1,delta=2
    18                           	psect	text9,local,class=CODE,merge=1,delta=2
    19                           	psect	text10,local,class=CODE,merge=1,delta=2
    20                           	psect	text11,local,class=CODE,merge=1,delta=2
    21                           	psect	text12,local,class=CODE,merge=1,delta=2
    22                           	psect	text13,local,class=CODE,merge=1,delta=2
    23                           	psect	text14,local,class=CODE,merge=1,delta=2
    24                           	psect	text15,local,class=CODE,merge=1,delta=2
    25                           	psect	text16,local,class=CODE,merge=1,delta=2,group=1
    26                           	psect	text17,local,class=CODE,merge=1,delta=2,group=1
    27                           	psect	text18,local,class=CODE,merge=1,delta=2
    28                           	psect	text19,local,class=CODE,merge=1,delta=2
    29                           	psect	text20,local,class=CODE,merge=1,delta=2
    30                           	psect	text21,local,class=CODE,merge=1,delta=2
    31                           	psect	idloc,global,abs,ovrld,class=IDLOC,space=5,delta=2,noexec
    32                           	psect	config,global,abs,ovrld,class=CONFIG,space=4,delta=2,noexec
    33                           	dabs	1,0x7E,2
    34     0000                     
    35                           ; Generated 19/10/2023 GMT
    36                           ; 
    37                           ; Copyright © 2023, Microchip Technology Inc. and its subsidiaries ("Microchip")
    38                           ; All rights reserved.
    39                           ; 
    40                           ; This software is developed by Microchip Technology Inc. and its subsidiaries ("Microch
      +                          ip").
    41                           ; 
    42                           ; Redistribution and use in source and binary forms, with or without modification, are
    43                           ; permitted provided that the following conditions are met:
    44                           ; 
    45                           ;     1. Redistributions of source code must retain the above copyright notice, this lis
      +                          t of
    46                           ;        conditions and the following disclaimer.
    47                           ; 
    48                           ;     2. Redistributions in binary form must reproduce the above copyright notice, this 
      +                          list
    49                           ;        of conditions and the following disclaimer in the documentation and/or other
    50                           ;        materials provided with the distribution. Publication is not required when
    51                           ;        this file is used in an embedded application.
    52                           ; 
    53                           ;     3. Microchip's name may not be used to endorse or promote products derived from th
      +                          is
    54                           ;        software without specific prior written permission.
    55                           ; 
    56                           ; THIS SOFTWARE IS PROVIDED BY MICROCHIP "AS IS" AND ANY EXPRESS OR IMPLIED WARRANTIES,
    57                           ; INCLUDING, BUT NOT LIMITED TO, THE IMPLIED WARRANTIES OF MERCHANTABILITY AND FITNESS F
      +                          OR
    58                           ; PURPOSE ARE DISCLAIMED.  IN NO EVENT SHALL MICROCHIP BE LIABLE FOR ANY DIRECT, INDIREC
      +                          T,
    59                           ; INCIDENTAL, SPECIAL, EXEMPLARY, OR CONSEQUENTIAL DAMAGES (INCLUDING BUT NOT LIMITED TO
    60                           ; PROCUREMENT OF SUBSTITUTE GOODS OR SERVICES; LOSS OF USE, DATA OR PROFITS; OR BUSINESS
    61                           ; INTERRUPTION) HOWSOEVER CAUSED AND ON ANY THEORY OF LIABILITY, WHETHER IN CONTRACT, ST
      +                          RICT
    62                           ; LIABILITY, OR TORT (INCLUDING NEGLIGENCE OR OTHERWISE) ARISING IN ANY WAY OUT OF THE U
      +                          SE OF
    63                           ; THIS SOFTWARE, EVEN IF ADVISED OF THE POSSIBILITY OF SUCH DAMAGE.
    64                           ; 
    65                           ; 
    66                           ; Code-generator required, PIC16F18015 Definitions
    67                           ; 
    68                           ; SFR Addresses
    69     0000                     	;# 
    70     0001                     	;# 
    71     0002                     	;# 
    72     0003                     	;# 
    73     0004                     	;# 
    74     0005                     	;# 
    75     0006                     	;# 
    76     0007                     	;# 
    77     0008                     	;# 
    78     0009                     	;# 
    79     000A                     	;# 
    80     000B                     	;# 
    81     000C                     	;# 
    82     0012                     	;# 
    83     0018                     	;# 
    84     008C                     	;# 
    85     008D                     	;# 
    86     008E                     	;# 
    87     008F                     	;# 
    88     0090                     	;# 
    89     0096                     	;# 
    90     0097                     	;# 
    91     0098                     	;# 
    92     0099                     	;# 
    93     009A                     	;# 
    94     018C                     	;# 
    95     018D                     	;# 
    96     018E                     	;# 
    97     018F                     	;# 
    98     019C                     	;# 
    99     019C                     	;# 
   100     019D                     	;# 
   101     019D                     	;# 
   102     019E                     	;# 
   103     019F                     	;# 
   104     020E                     	;# 
   105     020F                     	;# 
   106     0210                     	;# 
   107     0211                     	;# 
   108     0212                     	;# 
   109     0213                     	;# 
   110     0214                     	;# 
   111     028C                     	;# 
   112     028C                     	;# 
   113     028D                     	;# 
   114     028E                     	;# 
   115     028F                     	;# 
   116     028F                     	;# 
   117     0290                     	;# 
   118     0290                     	;# 
   119     0291                     	;# 
   120     0291                     	;# 
   121     0292                     	;# 
   122     0292                     	;# 
   123     0293                     	;# 
   124     0294                     	;# 
   125     0295                     	;# 
   126     0295                     	;# 
   127     0296                     	;# 
   128     0296                     	;# 
   129     0297                     	;# 
   130     0297                     	;# 
   131     030C                     	;# 
   132     030C                     	;# 
   133     030D                     	;# 
   134     030D                     	;# 
   135     030E                     	;# 
   136     030F                     	;# 
   137     0310                     	;# 
   138     0310                     	;# 
   139     0311                     	;# 
   140     0312                     	;# 
   141     0312                     	;# 
   142     0313                     	;# 
   143     0313                     	;# 
   144     0314                     	;# 
   145     0315                     	;# 
   146     0316                     	;# 
   147     0316                     	;# 
   148     0317                     	;# 
   149     0318                     	;# 
   150     0318                     	;# 
   151     0319                     	;# 
   152     0319                     	;# 
   153     031A                     	;# 
   154     031B                     	;# 
   155     031C                     	;# 
   156     031C                     	;# 
   157     031D                     	;# 
   158     038C                     	;# 
   159     038C                     	;# 
   160     038D                     	;# 
   161     038E                     	;# 
   162     038F                     	;# 
   163     0390                     	;# 
   164     0390                     	;# 
   165     0391                     	;# 
   166     0392                     	;# 
   167     0393                     	;# 
   168     039F                     	;# 
   169     040C                     	;# 
   170     040C                     	;# 
   171     040D                     	;# 
   172     040E                     	;# 
   173     040F                     	;# 
   174     040F                     	;# 
   175     0410                     	;# 
   176     0411                     	;# 
   177     0412                     	;# 
   178     0412                     	;# 
   179     0413                     	;# 
   180     0414                     	;# 
   181     041F                     	;# 
   182     048C                     	;# 
   183     048C                     	;# 
   184     048D                     	;# 
   185     048E                     	;# 
   186     048F                     	;# 
   187     048F                     	;# 
   188     0490                     	;# 
   189     0491                     	;# 
   190     0492                     	;# 
   191     0493                     	;# 
   192     050C                     	;# 
   193     050C                     	;# 
   194     050D                     	;# 
   195     050D                     	;# 
   196     050E                     	;# 
   197     050F                     	;# 
   198     0510                     	;# 
   199     0511                     	;# 
   200     0512                     	;# 
   201     0513                     	;# 
   202     0514                     	;# 
   203     058C                     	;# 
   204     058D                     	;# 
   205     058E                     	;# 
   206     058F                     	;# 
   207     0590                     	;# 
   208     0591                     	;# 
   209     0592                     	;# 
   210     0593                     	;# 
   211     0594                     	;# 
   212     0595                     	;# 
   213     0596                     	;# 
   214     0597                     	;# 
   215     060C                     	;# 
   216     060D                     	;# 
   217     060E                     	;# 
   218     060E                     	;# 
   219     060F                     	;# 
   220     0610                     	;# 
   221     0611                     	;# 
   222     0612                     	;# 
   223     0616                     	;# 
   224     0617                     	;# 
   225     0618                     	;# 
   226     0618                     	;# 
   227     0619                     	;# 
   228     061A                     	;# 
   229     061B                     	;# 
   230     061C                     	;# 
   231     068C                     	;# 
   232     068D                     	;# 
   233     068E                     	;# 
   234     068F                     	;# 
   235     0690                     	;# 
   236     0691                     	;# 
   237     0692                     	;# 
   238     0696                     	;# 
   239     0697                     	;# 
   240     0698                     	;# 
   241     0699                     	;# 
   242     069A                     	;# 
   243     069B                     	;# 
   244     069C                     	;# 
   245     100C                     	;# 
   246     100D                     	;# 
   247     101F                     	;# 
   248     108C                     	;# 
   249     108D                     	;# 
   250     108E                     	;# 
   251     108F                     	;# 
   252     109F                     	;# 
   253     109F                     	;# 
   254     110C                     	;# 
   255     110D                     	;# 
   256     1C8C                     	;# 
   257     1C8C                     	;# 
   258     1C8D                     	;# 
   259     1C8E                     	;# 
   260     1C8E                     	;# 
   261     1C8F                     	;# 
   262     1C90                     	;# 
   263     1C91                     	;# 
   264     1D0C                     	;# 
   265     1D0C                     	;# 
   266     1D0D                     	;# 
   267     1D0E                     	;# 
   268     1D0E                     	;# 
   269     1D0F                     	;# 
   270     1D10                     	;# 
   271     1D10                     	;# 
   272     1D11                     	;# 
   273     1D12                     	;# 
   274     1D12                     	;# 
   275     1D13                     	;# 
   276     1D14                     	;# 
   277     1D14                     	;# 
   278     1D15                     	;# 
   279     1D16                     	;# 
   280     1D16                     	;# 
   281     1D17                     	;# 
   282     1D18                     	;# 
   283     1D19                     	;# 
   284     1D1A                     	;# 
   285     1D1B                     	;# 
   286     1D1B                     	;# 
   287     1D1C                     	;# 
   288     1D1D                     	;# 
   289     1D1D                     	;# 
   290     1D1E                     	;# 
   291     1D1F                     	;# 
   292     1D21                     	;# 
   293     1D21                     	;# 
   294     1D22                     	;# 
   295     1D23                     	;# 
   296     1D24                     	;# 
   297     1D24                     	;# 
   298     1D25                     	;# 
   299     1D26                     	;# 
   300     1D27                     	;# 
   301     1D28                     	;# 
   302     1D29                     	;# 
   303     1D2A                     	;# 
   304     1D2B                     	;# 
   305     1D2C                     	;# 
   306     1D2D                     	;# 
   307     1D2E                     	;# 
   308     1D8C                     	;# 
   309     1D8D                     	;# 
   310     1D8E                     	;# 
   311     1D90                     	;# 
   312     1D91                     	;# 
   313     1E0C                     	;# 
   314     1E0D                     	;# 
   315     1E0E                     	;# 
   316     1E0F                     	;# 
   317     1E10                     	;# 
   318     1E11                     	;# 
   319     1E12                     	;# 
   320     1E19                     	;# 
   321     1E1A                     	;# 
   322     1E1B                     	;# 
   323     1E1E                     	;# 
   324     1E1F                     	;# 
   325     1E39                     	;# 
   326     1E3D                     	;# 
   327     1E3E                     	;# 
   328     1E3F                     	;# 
   329     1E40                     	;# 
   330     1E41                     	;# 
   331     1E41                     	;# 
   332     1E42                     	;# 
   333     1E42                     	;# 
   334     1E43                     	;# 
   335     1E43                     	;# 
   336     1E44                     	;# 
   337     1E44                     	;# 
   338     1E47                     	;# 
   339     1E48                     	;# 
   340     1E49                     	;# 
   341     1E4A                     	;# 
   342     1E4B                     	;# 
   343     1E4C                     	;# 
   344     1E50                     	;# 
   345     1E8C                     	;# 
   346     1E8D                     	;# 
   347     1E8E                     	;# 
   348     1E8F                     	;# 
   349     1E90                     	;# 
   350     1E91                     	;# 
   351     1E92                     	;# 
   352     1E93                     	;# 
   353     1EE1                     	;# 
   354     1EE2                     	;# 
   355     1F0C                     	;# 
   356     1F0D                     	;# 
   357     1F0E                     	;# 
   358     1FE4                     	;# 
   359     1FE5                     	;# 
   360     1FE6                     	;# 
   361     1FE7                     	;# 
   362     1FE8                     	;# 
   363     1FE8                     	;# 
   364     1FE9                     	;# 
   365     1FEA                     	;# 
   366     1FEA                     	;# 
   367     1FEB                     	;# 
   368     1FED                     	;# 
   369     1FEE                     	;# 
   370     1FEF                     	;# 
   371     0000                     	;# 
   372     0001                     	;# 
   373     0002                     	;# 
   374     0003                     	;# 
   375     0004                     	;# 
   376     0005                     	;# 
   377     0006                     	;# 
   378     0007                     	;# 
   379     0008                     	;# 
   380     0009                     	;# 
   381     000A                     	;# 
   382     000B                     	;# 
   383     000C                     	;# 
   384     0012                     	;# 
   385     0018                     	;# 
   386     008C                     	;# 
   387     008D                     	;# 
   388     008E                     	;# 
   389     008F                     	;# 
   390     0090                     	;# 
   391     0096                     	;# 
   392     0097                     	;# 
   393     0098                     	;# 
   394     0099                     	;# 
   395     009A                     	;# 
   396     018C                     	;# 
   397     018D                     	;# 
   398     018E                     	;# 
   399     018F                     	;# 
   400     019C                     	;# 
   401     019C                     	;# 
   402     019D                     	;# 
   403     019D                     	;# 
   404     019E                     	;# 
   405     019F                     	;# 
   406     020E                     	;# 
   407     020F                     	;# 
   408     0210                     	;# 
   409     0211                     	;# 
   410     0212                     	;# 
   411     0213                     	;# 
   412     0214                     	;# 
   413     028C                     	;# 
   414     028C                     	;# 
   415     028D                     	;# 
   416     028E                     	;# 
   417     028F                     	;# 
   418     028F                     	;# 
   419     0290                     	;# 
   420     0290                     	;# 
   421     0291                     	;# 
   422     0291                     	;# 
   423     0292                     	;# 
   424     0292                     	;# 
   425     0293                     	;# 
   426     0294                     	;# 
   427     0295                     	;# 
   428     0295                     	;# 
   429     0296                     	;# 
   430     0296                     	;# 
   431     0297                     	;# 
   432     0297                     	;# 
   433     030C                     	;# 
   434     030C                     	;# 
   435     030D                     	;# 
   436     030D                     	;# 
   437     030E                     	;# 
   438     030F                     	;# 
   439     0310                     	;# 
   440     0310                     	;# 
   441     0311                     	;# 
   442     0312                     	;# 
   443     0312                     	;# 
   444     0313                     	;# 
   445     0313                     	;# 
   446     0314                     	;# 
   447     0315                     	;# 
   448     0316                     	;# 
   449     0316                     	;# 
   450     0317                     	;# 
   451     0318                     	;# 
   452     0318                     	;# 
   453     0319                     	;# 
   454     0319                     	;# 
   455     031A                     	;# 
   456     031B                     	;# 
   457     031C                     	;# 
   458     031C                     	;# 
   459     031D                     	;# 
   460     038C                     	;# 
   461     038C                     	;# 
   462     038D                     	;# 
   463     038E                     	;# 
   464     038F                     	;# 
   465     0390                     	;# 
   466     0390                     	;# 
   467     0391                     	;# 
   468     0392                     	;# 
   469     0393                     	;# 
   470     039F                     	;# 
   471     040C                     	;# 
   472     040C                     	;# 
   473     040D                     	;# 
   474     040E                     	;# 
   475     040F                     	;# 
   476     040F                     	;# 
   477     0410                     	;# 
   478     0411                     	;# 
   479     0412                     	;# 
   480     0412                     	;# 
   481     0413                     	;# 
   482     0414                     	;# 
   483     041F                     	;# 
   484     048C                     	;# 
   485     048C                     	;# 
   486     048D                     	;# 
   487     048E                     	;# 
   488     048F                     	;# 
   489     048F                     	;# 
   490     0490                     	;# 
   491     0491                     	;# 
   492     0492                     	;# 
   493     0493                     	;# 
   494     050C                     	;# 
   495     050C                     	;# 
   496     050D                     	;# 
   497     050D                     	;# 
   498     050E                     	;# 
   499     050F                     	;# 
   500     0510                     	;# 
   501     0511                     	;# 
   502     0512                     	;# 
   503     0513                     	;# 
   504     0514                     	;# 
   505     058C                     	;# 
   506     058D                     	;# 
   507     058E                     	;# 
   508     058F                     	;# 
   509     0590                     	;# 
   510     0591                     	;# 
   511     0592                     	;# 
   512     0593                     	;# 
   513     0594                     	;# 
   514     0595                     	;# 
   515     0596                     	;# 
   516     0597                     	;# 
   517     060C                     	;# 
   518     060D                     	;# 
   519     060E                     	;# 
   520     060E                     	;# 
   521     060F                     	;# 
   522     0610                     	;# 
   523     0611                     	;# 
   524     0612                     	;# 
   525     0616                     	;# 
   526     0617                     	;# 
   527     0618                     	;# 
   528     0618                     	;# 
   529     0619                     	;# 
   530     061A                     	;# 
   531     061B                     	;# 
   532     061C                     	;# 
   533     068C                     	;# 
   534     068D                     	;# 
   535     068E                     	;# 
   536     068F                     	;# 
   537     0690                     	;# 
   538     0691                     	;# 
   539     0692                     	;# 
   540     0696                     	;# 
   541     0697                     	;# 
   542     0698                     	;# 
   543     0699                     	;# 
   544     069A                     	;# 
   545     069B                     	;# 
   546     069C                     	;# 
   547     100C                     	;# 
   548     100D                     	;# 
   549     101F                     	;# 
   550     108C                     	;# 
   551     108D                     	;# 
   552     108E                     	;# 
   553     108F                     	;# 
   554     109F                     	;# 
   555     109F                     	;# 
   556     110C                     	;# 
   557     110D                     	;# 
   558     1C8C                     	;# 
   559     1C8C                     	;# 
   560     1C8D                     	;# 
   561     1C8E                     	;# 
   562     1C8E                     	;# 
   563     1C8F                     	;# 
   564     1C90                     	;# 
   565     1C91                     	;# 
   566     1D0C                     	;# 
   567     1D0C                     	;# 
   568     1D0D                     	;# 
   569     1D0E                     	;# 
   570     1D0E                     	;# 
   571     1D0F                     	;# 
   572     1D10                     	;# 
   573     1D10                     	;# 
   574     1D11                     	;# 
   575     1D12                     	;# 
   576     1D12                     	;# 
   577     1D13                     	;# 
   578     1D14                     	;# 
   579     1D14                     	;# 
   580     1D15                     	;# 
   581     1D16                     	;# 
   582     1D16                     	;# 
   583     1D17                     	;# 
   584     1D18                     	;# 
   585     1D19                     	;# 
   586     1D1A                     	;# 
   587     1D1B                     	;# 
   588     1D1B                     	;# 
   589     1D1C                     	;# 
   590     1D1D                     	;# 
   591     1D1D                     	;# 
   592     1D1E                     	;# 
   593     1D1F                     	;# 
   594     1D21                     	;# 
   595     1D21                     	;# 
   596     1D22                     	;# 
   597     1D23                     	;# 
   598     1D24                     	;# 
   599     1D24                     	;# 
   600     1D25                     	;# 
   601     1D26                     	;# 
   602     1D27                     	;# 
   603     1D28                     	;# 
   604     1D29                     	;# 
   605     1D2A                     	;# 
   606     1D2B                     	;# 
   607     1D2C                     	;# 
   608     1D2D                     	;# 
   609     1D2E                     	;# 
   610     1D8C                     	;# 
   611     1D8D                     	;# 
   612     1D8E                     	;# 
   613     1D90                     	;# 
   614     1D91                     	;# 
   615     1E0C                     	;# 
   616     1E0D                     	;# 
   617     1E0E                     	;# 
   618     1E0F                     	;# 
   619     1E10                     	;# 
   620     1E11                     	;# 
   621     1E12                     	;# 
   622     1E19                     	;# 
   623     1E1A                     	;# 
   624     1E1B                     	;# 
   625     1E1E                     	;# 
   626     1E1F                     	;# 
   627     1E39                     	;# 
   628     1E3D                     	;# 
   629     1E3E                     	;# 
   630     1E3F                     	;# 
   631     1E40                     	;# 
   632     1E41                     	;# 
   633     1E41                     	;# 
   634     1E42                     	;# 
   635     1E42                     	;# 
   636     1E43                     	;# 
   637     1E43                     	;# 
   638     1E44                     	;# 
   639     1E44                     	;# 
   640     1E47                     	;# 
   641     1E48                     	;# 
   642     1E49                     	;# 
   643     1E4A                     	;# 
   644     1E4B                     	;# 
   645     1E4C                     	;# 
   646     1E50                     	;# 
   647     1E8C                     	;# 
   648     1E8D                     	;# 
   649     1E8E                     	;# 
   650     1E8F                     	;# 
   651     1E90                     	;# 
   652     1E91                     	;# 
   653     1E92                     	;# 
   654     1E93                     	;# 
   655     1EE1                     	;# 
   656     1EE2                     	;# 
   657     1F0C                     	;# 
   658     1F0D                     	;# 
   659     1F0E                     	;# 
   660     1FE4                     	;# 
   661     1FE5                     	;# 
   662     1FE6                     	;# 
   663     1FE7                     	;# 
   664     1FE8                     	;# 
   665     1FE8                     	;# 
   666     1FE9                     	;# 
   667     1FEA                     	;# 
   668     1FEA                     	;# 
   669     1FEB                     	;# 
   670     1FED                     	;# 
   671     1FEE                     	;# 
   672     1FEF                     	;# 
   673     0012                     _TRISAbits	set	18
   674     000C                     _PORTA	set	12
   675     0012                     _TRISA	set	18
   676     008F                     _PIR3bits	set	143
   677     018C                     _WDTCONbits	set	396
   678     0617                     _TX2REG	set	1559
   679     0619                     _SP2BRGH	set	1561
   680     0618                     _SP2BRGL	set	1560
   681     061A                     _RC2STAbits	set	1562
   682     061C                     _BAUD2CONbits	set	1564
   683     061B                     _TX2STAbits	set	1563
   684     068C                     _SSP1BUF	set	1676
   685     0691                     _SSP1CON2bits	set	1681
   686     068F                     _SSP1STAT	set	1679
   687     068D                     _SSP1ADD	set	1677
   688     0691                     _SSP1CON2	set	1681
   689     0690                     _SSP1CON1bits	set	1680
   690     068F                     _SSP1STATbits	set	1679
   691     1D1D                     _ADRES	set	7453
   692     1D26                     _ADCON0bits	set	7462
   693     1D2B                     _ADREF	set	7467
   694     1D1F                     _ADPCH	set	7455
   695     1D91                     _RA5PPS	set	7569
   696     1D8E                     _RA2PPS	set	7566
   697     1D8D                     _RA1PPS	set	7565
   698     1E48                     _SSP1DATPPS	set	7752
   699     1E47                     _SSP1CLKPPS	set	7751
   700     1E8E                     _ODCONAbits	set	7822
   701     1E8C                     _ANSELA	set	7820
   702                           
   703                           	psect	stringtext1
   704     0800                     __pstringtext1:
   705     0800                     STR_1:
   706     0800  3448               	retlw	72	;'H'
   707     0801  3465               	retlw	101	;'e'
   708     0802  346C               	retlw	108	;'l'
   709     0803  346C               	retlw	108	;'l'
   710     0804  346F               	retlw	111	;'o'
   711     0805  3420               	retlw	32	;' '
   712     0806  3421               	retlw	33	;'!'
   713     0807  3420               	retlw	32	;' '
   714     0808  3449               	retlw	73	;'I'
   715     0809  3420               	retlw	32	;' '
   716     080A  3461               	retlw	97	;'a'
   717     080B  346D               	retlw	109	;'m'
   718     080C  3420               	retlw	32	;' '
   719     080D  3461               	retlw	97	;'a'
   720     080E  3420               	retlw	32	;' '
   721     080F  3450               	retlw	80	;'P'
   722     0810  3449               	retlw	73	;'I'
   723     0811  3443               	retlw	67	;'C'
   724     0812  3420               	retlw	32	;' '
   725     0813  3421               	retlw	33	;'!'
   726     0814  3420               	retlw	32	;' '
   727     0815  3400               	retlw	0
   728                           
   729                           	psect	stringtext2
   730     0000                     __pstringtext2:
   731                           
   732                           	psect	cinit
   733     07FD                     start_initialization:	
   734                           ; #config settings
   735                           
   736     07FD                     __initialization:
   737     07FD                     end_of_initialization:	
   738                           ;End of C runtime variable initialization code
   739                           
   740     07FD                     __end_of__initialization:
   741     07FD  0140               	movlb	0
   742     07FE  3184  2C3D         	ljmp	_main	;jump to C main() function
   743                           
   744                           	psect	cstackCOMMON
   745     0070                     __pcstackCOMMON:
   746     0070                     ?_I2C_setup:
   747     0070                     ??_I2C_setup:	
   748                           ; 1 bytes @ 0x0
   749                           
   750     0070                     ?_EUSART_setup:	
   751                           ; 1 bytes @ 0x0
   752                           
   753     0070                     ??_EUSART_setup:	
   754                           ; 1 bytes @ 0x0
   755                           
   756     0070                     ?_Analog_setup:	
   757                           ; 1 bytes @ 0x0
   758                           
   759     0070                     ??_Analog_setup:	
   760                           ; 1 bytes @ 0x0
   761                           
   762     0070                     ?_WDT_setup:	
   763                           ; 1 bytes @ 0x0
   764                           
   765     0070                     ??_WDT_setup:	
   766                           ; 1 bytes @ 0x0
   767                           
   768     0070                     ?_EUSART_print_num:	
   769                           ; 1 bytes @ 0x0
   770                           
   771     0070                     ?_I2C_MCP23008_read:	
   772                           ; 1 bytes @ 0x0
   773                           
   774     0070                     ?_main:	
   775                           ; 1 bytes @ 0x0
   776                           
   777     0070                     ?_I2C_wait:	
   778                           ; 1 bytes @ 0x0
   779                           
   780     0070                     ??_I2C_wait:	
   781                           ; 1 bytes @ 0x0
   782                           
   783     0070                     ?_I2C_start:	
   784                           ; 1 bytes @ 0x0
   785                           
   786     0070                     ??_I2C_start:	
   787                           ; 1 bytes @ 0x0
   788                           
   789     0070                     ?_I2C_stop:	
   790                           ; 1 bytes @ 0x0
   791                           
   792     0070                     ??_I2C_stop:	
   793                           ; 1 bytes @ 0x0
   794                           
   795     0070                     ?_I2C_write:	
   796                           ; 1 bytes @ 0x0
   797                           
   798     0070                     ??_I2C_write:	
   799                           ; 1 bytes @ 0x0
   800                           
   801     0070                     ?_I2C_read:	
   802                           ; 1 bytes @ 0x0
   803                           
   804     0070                     ??_I2C_read:	
   805                           ; 1 bytes @ 0x0
   806                           
   807     0070                     ?_EUSART_write:	
   808                           ; 1 bytes @ 0x0
   809                           
   810     0070                     ??_EUSART_write:	
   811                           ; 1 bytes @ 0x0
   812                           
   813     0070                     ?_Analog_read:	
   814                           ; 1 bytes @ 0x0
   815                           
   816     0070                     ?__Umul8_16:	
   817                           ; 2 bytes @ 0x0
   818                           
   819     0070                     ?___awdiv:	
   820                           ; 2 bytes @ 0x0
   821                           
   822     0070                     ?___xxtofl:	
   823                           ; 2 bytes @ 0x0
   824                           
   825     0070                     I2C_write@data:	
   826                           ; 4 bytes @ 0x0
   827                           
   828     0070                     I2C_read@tmp:	
   829                           ; 1 bytes @ 0x0
   830                           
   831     0070                     EUSART_write@txData:	
   832                           ; 1 bytes @ 0x0
   833                           
   834     0070                     __Umul8_16@multiplicand:	
   835                           ; 1 bytes @ 0x0
   836                           
   837     0070                     ___awdiv@divisor:	
   838                           ; 1 bytes @ 0x0
   839                           
   840     0070                     ___xxtofl@val:	
   841                           ; 2 bytes @ 0x0
   842                           
   843                           
   844                           ; 4 bytes @ 0x0
   845     0070                     	ds	1
   846     0071                     ?_EUSART_print:
   847     0071                     ?_I2C_read_query:	
   848                           ; 1 bytes @ 0x1
   849                           
   850     0071                     I2C_read_query@data:	
   851                           ; 1 bytes @ 0x1
   852                           
   853     0071                     EUSART_print@string:	
   854                           ; 1 bytes @ 0x1
   855                           
   856                           
   857                           ; 2 bytes @ 0x1
   858     0071                     	ds	1
   859     0072                     ??_Analog_read:
   860     0072                     ??__Umul8_16:	
   861                           ; 1 bytes @ 0x2
   862                           
   863     0072                     I2C_read_query@number_of_bytes:	
   864                           ; 1 bytes @ 0x2
   865                           
   866     0072                     ___awdiv@dividend:	
   867                           ; 1 bytes @ 0x2
   868                           
   869                           
   870                           ; 2 bytes @ 0x2
   871     0072                     	ds	1
   872     0073                     ??_EUSART_print:
   873     0073                     ??_I2C_read_query:	
   874                           ; 1 bytes @ 0x3
   875                           
   876                           
   877                           ; 1 bytes @ 0x3
   878     0073                     	ds	1
   879     0074                     ??___awdiv:
   880     0074                     ??___xxtofl:	
   881                           ; 1 bytes @ 0x4
   882                           
   883     0074                     I2C_read_query@i:	
   884                           ; 1 bytes @ 0x4
   885                           
   886     0074                     __Umul8_16@product:	
   887                           ; 2 bytes @ 0x4
   888                           
   889                           
   890                           ; 2 bytes @ 0x4
   891     0074                     	ds	1
   892     0075                     ___awdiv@counter:
   893                           
   894                           ; 1 bytes @ 0x5
   895     0075                     	ds	1
   896     0076                     I2C_read_query@address:
   897     0076                     EUSART_print@c:	
   898                           ; 1 bytes @ 0x6
   899                           
   900     0076                     ___awdiv@sign:	
   901                           ; 1 bytes @ 0x6
   902                           
   903     0076                     __Umul8_16@word_mpld:	
   904                           ; 1 bytes @ 0x6
   905                           
   906                           
   907                           ; 2 bytes @ 0x6
   908     0076                     	ds	1
   909     0077                     ??_I2C_MCP23008_read:
   910     0077                     ___awdiv@quotient:	
   911                           ; 1 bytes @ 0x7
   912                           
   913                           
   914                           ; 2 bytes @ 0x7
   915     0077                     	ds	1
   916     0078                     __Umul8_16@multiplier:
   917     0078                     ___xxtofl@sign:	
   918                           ; 1 bytes @ 0x8
   919                           
   920                           
   921                           ; 1 bytes @ 0x8
   922     0078                     	ds	1
   923     0079                     ?___awmod:
   924     0079                     ___xxtofl@exp:	
   925                           ; 2 bytes @ 0x9
   926                           
   927     0079                     ___awmod@divisor:	
   928                           ; 1 bytes @ 0x9
   929                           
   930                           
   931                           ; 2 bytes @ 0x9
   932     0079                     	ds	1
   933     007A                     ___xxtofl@arg:
   934                           
   935                           ; 4 bytes @ 0xA
   936     007A                     	ds	1
   937     007B                     ___awmod@dividend:
   938                           
   939                           ; 2 bytes @ 0xB
   940     007B                     	ds	2
   941     007D                     ??___awmod:
   942                           
   943                           ; 1 bytes @ 0xD
   944     007D                     	ds	1
   945                           
   946                           	psect	cstackBANK0
   947     0020                     __pcstackBANK0:
   948     0020                     ?___flmul:
   949     0020                     ___awmod@counter:	
   950                           ; 4 bytes @ 0x0
   951                           
   952     0020                     ___flmul@b:	
   953                           ; 1 bytes @ 0x0
   954                           
   955     0020                     I2C_MCP23008_read@rx_data:	
   956                           ; 4 bytes @ 0x0
   957                           
   958                           
   959                           ; 11 bytes @ 0x0
   960     0020                     	ds	1
   961     0021                     ___awmod@sign:
   962                           
   963                           ; 1 bytes @ 0x1
   964     0021                     	ds	1
   965     0022                     ??_EUSART_print_num:
   966                           
   967                           ; 1 bytes @ 0x2
   968     0022                     	ds	2
   969     0024                     EUSART_print_num@c:
   970     0024                     ___flmul@a:	
   971                           ; 1 bytes @ 0x4
   972                           
   973                           
   974                           ; 4 bytes @ 0x4
   975     0024                     	ds	1
   976     0025                     EUSART_print_num@d:
   977                           
   978                           ; 1 bytes @ 0x5
   979     0025                     	ds	1
   980     0026                     EUSART_print_num@u:
   981                           
   982                           ; 1 bytes @ 0x6
   983     0026                     	ds	1
   984     0027                     EUSART_print_num@number:
   985                           
   986                           ; 1 bytes @ 0x7
   987     0027                     	ds	1
   988     0028                     ??___flmul:
   989                           
   990                           ; 1 bytes @ 0x8
   991     0028                     	ds	5
   992     002D                     ___flmul@sign:
   993                           
   994                           ; 1 bytes @ 0xD
   995     002D                     	ds	1
   996     002E                     ___flmul@grs:
   997                           
   998                           ; 4 bytes @ 0xE
   999     002E                     	ds	4
  1000     0032                     ___flmul@aexp:
  1001                           
  1002                           ; 1 bytes @ 0x12
  1003     0032                     	ds	1
  1004     0033                     ___flmul@bexp:
  1005                           
  1006                           ; 1 bytes @ 0x13
  1007     0033                     	ds	1
  1008     0034                     ___flmul@prod:
  1009                           
  1010                           ; 4 bytes @ 0x14
  1011     0034                     	ds	4
  1012     0038                     ___flmul@temp:
  1013                           
  1014                           ; 2 bytes @ 0x18
  1015     0038                     	ds	2
  1016     003A                     ?___fltol:
  1017     003A                     ___fltol@f1:	
  1018                           ; 4 bytes @ 0x1A
  1019                           
  1020                           
  1021                           ; 4 bytes @ 0x1A
  1022     003A                     	ds	4
  1023     003E                     ??___fltol:
  1024                           
  1025                           ; 1 bytes @ 0x1E
  1026     003E                     	ds	4
  1027     0042                     ___fltol@sign1:
  1028                           
  1029                           ; 1 bytes @ 0x22
  1030     0042                     	ds	1
  1031     0043                     ___fltol@exp1:
  1032                           
  1033                           ; 1 bytes @ 0x23
  1034     0043                     	ds	1
  1035     0044                     ??_main:
  1036                           
  1037                           ; 1 bytes @ 0x24
  1038     0044                     	ds	2
  1039     0046                     main@a:
  1040                           
  1041                           ; 2 bytes @ 0x26
  1042     0046                     	ds	2
  1043     0048                     main@r:
  1044                           
  1045                           ; 1 bytes @ 0x28
  1046     0048                     	ds	1
  1047                           
  1048                           	psect	maintext
  1049     043D                     __pmaintext:	
  1050 ;;
  1051 ;;Main: autosize = 0, tempsize = 2, incstack = 0, save=0
  1052 ;;
  1053 ;; *************** function _main *****************
  1054 ;; Defined at:
  1055 ;;		line 85 in file "main.c"
  1056 ;; Parameters:    Size  Location     Type
  1057 ;;		None
  1058 ;; Auto vars:     Size  Location     Type
  1059 ;;  a               2   38[BANK0 ] unsigned short 
  1060 ;;  r               1   40[BANK0 ] unsigned char 
  1061 ;;  humidity        4    0        float 
  1062 ;;  temp            4    0        float 
  1063 ;;  sleep_counte    1    0        unsigned char 
  1064 ;; Return value:  Size  Location     Type
  1065 ;;                  1    wreg      void 
  1066 ;; Registers used:
  1067 ;;		wreg, fsr0l, fsr0h, fsr1l, fsr1h, status,2, status,0, pclath, cstack
  1068 ;; Tracked objects:
  1069 ;;		On entry : B3F/0
  1070 ;;		On exit  : 0/0
  1071 ;;		Unchanged: 0/0
  1072 ;; Data sizes:     COMMON   BANK0   BANK1   BANK2   BANK3   BANK4   BANK5   BANK6   BANK7   BANK8   BANK9  BANK10  BANK1
      +1  BANK12
  1073 ;;      Params:         0       0       0       0       0       0       0       0       0       0       0       0       
      +0       0
  1074 ;;      Locals:         0       3       0       0       0       0       0       0       0       0       0       0       
      +0       0
  1075 ;;      Temps:          0       2       0       0       0       0       0       0       0       0       0       0       
      +0       0
  1076 ;;      Totals:         0       5       0       0       0       0       0       0       0       0       0       0       
      +0       0
  1077 ;;Total ram usage:        5 bytes
  1078 ;; Hardware stack levels required when called: 4
  1079 ;; This function calls:
  1080 ;;		_Analog_read
  1081 ;;		_Analog_setup
  1082 ;;		_EUSART_print
  1083 ;;		_EUSART_print_num
  1084 ;;		_EUSART_setup
  1085 ;;		_I2C_MCP23008_read
  1086 ;;		_I2C_setup
  1087 ;;		_WDT_setup
  1088 ;;		___flmul
  1089 ;;		___fltol
  1090 ;;		___xxtofl
  1091 ;; This function is called by:
  1092 ;;		Startup code after reset
  1093 ;; This function uses a non-reentrant model
  1094 ;;
  1095                           
  1096     043D                     _main:	
  1097                           ;psect for function _main
  1098                           
  1099     043D                     l1699:	
  1100                           ;incstack = 0
  1101                           ; Regs used in _main: [wreg-fsr1h+status,2+status,0+pclath+cstack]
  1102                           
  1103                           
  1104                           ;main.c: 87:     TRISA &= !(1<<4);
  1105     043D  0140               	movlb	0	; select bank0
  1106     043E  0192               	clrf	18	;volatile
  1107                           
  1108                           ;main.c: 89:     ANSELA = 0x0;
  1109     043F  017D               	movlb	61	; select bank61
  1110     0440  018C               	clrf	12	;volatile
  1111     0441                     l1701:
  1112                           
  1113                           ;main.c: 92:     I2C_setup();
  1114     0441  3182  22A6  3184   	fcall	_I2C_setup
  1115     0444                     l1703:
  1116                           
  1117                           ;main.c: 95:     EUSART_setup();
  1118     0444  3182  2285  3184   	fcall	_EUSART_setup
  1119     0447                     l1705:
  1120                           
  1121                           ;main.c: 98:     Analog_setup();
  1122     0447  3182  2278  3184   	fcall	_Analog_setup
  1123     044A                     l1707:
  1124                           
  1125                           ;main.c: 101:     WDT_setup();
  1126     044A  3182  223F  3184   	fcall	_WDT_setup
  1127     044D                     l1709:
  1128                           
  1129                           ;main.c: 106:     PORTA |= (1<<4);
  1130     044D  0140               	movlb	0	; select bank0
  1131     044E  160C               	bsf	12,4	;volatile
  1132     044F                     l1711:
  1133                           
  1134                           ;main.c: 122:         EUSART_print("Hello ! I am a PIC ! ");
  1135     044F  3000               	movlw	low (STR_1| (0+32768))
  1136     0450  00F1               	movwf	EUSART_print@string
  1137     0451  3088               	movlw	high (STR_1| (0+32768))
  1138     0452  00F2               	movwf	EUSART_print@string+1
  1139     0453  3182  22E4  3184   	fcall	_EUSART_print
  1140     0456                     l1713:
  1141                           
  1142                           ;main.c: 126:         uint16_t a = Analog_read();
  1143     0456  3182  2260  3184   	fcall	_Analog_read
  1144     0459  0871               	movf	?_Analog_read+1,w
  1145     045A  0140               	movlb	0	; select bank0
  1146     045B  00C7               	movwf	main@a+1
  1147     045C  0870               	movf	?_Analog_read,w
  1148     045D  00C6               	movwf	main@a
  1149     045E                     l1715:
  1150                           
  1151                           ;main.c: 127:         uint8_t r = a*(100.0/1024.0);
  1152     045E  0846               	movf	main@a,w
  1153     045F  00F0               	movwf	___xxtofl@val
  1154     0460  0847               	movf	main@a+1,w
  1155     0461  00F1               	movwf	___xxtofl@val+1
  1156     0462  01F2               	clrf	___xxtofl@val+2
  1157     0463  01F3               	clrf	___xxtofl@val+3
  1158     0464  3000               	movlw	0
  1159     0465  3185  2518  3184   	fcall	___xxtofl
  1160     0468  0873               	movf	?___xxtofl+3,w
  1161     0469  0140               	movlb	0	; select bank0
  1162     046A  00A7               	movwf	___flmul@a+3
  1163     046B  0872               	movf	?___xxtofl+2,w
  1164     046C  00A6               	movwf	___flmul@a+2
  1165     046D  0871               	movf	?___xxtofl+1,w
  1166     046E  00A5               	movwf	___flmul@a+1
  1167     046F  0870               	movf	?___xxtofl,w
  1168     0470  00A4               	movwf	___flmul@a
  1169     0471  303D               	movlw	61
  1170     0472  00A3               	movwf	___flmul@b+3
  1171     0473  30C8               	movlw	200
  1172     0474  00A2               	movwf	___flmul@b+2
  1173     0475  3000               	movlw	0
  1174     0476  00A1               	movwf	___flmul@b+1
  1175     0477  3000               	movlw	0
  1176     0478  00A0               	movwf	___flmul@b
  1177     0479  3185  25C2  3184   	fcall	___flmul
  1178     047C  0140               	movlb	0	; select bank0
  1179     047D  0823               	movf	?___flmul+3,w
  1180     047E  00BD               	movwf	___fltol@f1+3
  1181     047F  0822               	movf	?___flmul+2,w
  1182     0480  00BC               	movwf	___fltol@f1+2
  1183     0481  0821               	movf	?___flmul+1,w
  1184     0482  00BB               	movwf	___fltol@f1+1
  1185     0483  0820               	movf	?___flmul,w
  1186     0484  00BA               	movwf	___fltol@f1
  1187     0485  3184  24A7  3184   	fcall	___fltol
  1188     0488  0140               	movlb	0	; select bank0
  1189     0489  083A               	movf	?___fltol,w
  1190     048A  00C8               	movwf	main@r
  1191     048B                     l1717:
  1192                           
  1193                           ;main.c: 128:         EUSART_print_num(r);
  1194     048B  0848               	movf	main@r,w
  1195     048C  3183  2338  3184   	fcall	_EUSART_print_num
  1196     048F                     l1719:
  1197                           
  1198                           ;main.c: 135:         I2C_MCP23008_read();
  1199     048F  3182  224D  3184   	fcall	_I2C_MCP23008_read
  1200     0492                     l1721:
  1201                           
  1202                           ;main.c: 136:         _delay((unsigned long)((1000)*(1000000/4000.0)));
  1203     0492  3002               	movlw	2
  1204     0493  0140               	movlb	0	; select bank0
  1205     0494  00C5               	movwf	??_main+1
  1206     0495  3045               	movlw	69
  1207     0496  00C4               	movwf	??_main
  1208     0497  30A9               	movlw	169
  1209     0498                     u1577:
  1210     0498  0B89               	decfsz	9,f
  1211     0499  2C98               	goto	u1577
  1212     049A  0BC4               	decfsz	??_main,f
  1213     049B  2C98               	goto	u1577
  1214     049C  0BC5               	decfsz	??_main+1,f
  1215     049D  2C98               	goto	u1577
  1216     049E  3200               	nop2
  1217     049F                     l1723:
  1218                           
  1219                           ;main.c: 137:         PORTA ^= (1<<4);
  1220     049F  3010               	movlw	16
  1221     04A0  0140               	movlb	0	; select bank0
  1222     04A1  00C4               	movwf	??_main
  1223     04A2  0844               	movf	??_main,w
  1224     04A3  068C               	xorwf	12,f	;volatile
  1225     04A4  2C4F               	goto	l1711
  1226     04A5  3180  2802         	ljmp	start
  1227     04A7                     __end_of_main:
  1228                           
  1229                           	psect	text1
  1230     0518                     __ptext1:	
  1231 ;; *************** function ___xxtofl *****************
  1232 ;; Defined at:
  1233 ;;		line 10 in file "C:\Program Files\Microchip\xc8\v2.40\pic\sources\c99\common\xxtofl.c"
  1234 ;; Parameters:    Size  Location     Type
  1235 ;;  sign            1    wreg     unsigned char 
  1236 ;;  val             4    0[COMMON] long 
  1237 ;; Auto vars:     Size  Location     Type
  1238 ;;  sign            1    8[COMMON] unsigned char 
  1239 ;;  arg             4   10[COMMON] unsigned long 
  1240 ;;  exp             1    9[COMMON] unsigned char 
  1241 ;; Return value:  Size  Location     Type
  1242 ;;                  4    0[COMMON] unsigned char 
  1243 ;; Registers used:
  1244 ;;		wreg, status,2, status,0
  1245 ;; Tracked objects:
  1246 ;;		On entry : 0/0
  1247 ;;		On exit  : 0/0
  1248 ;;		Unchanged: 0/0
  1249 ;; Data sizes:     COMMON   BANK0   BANK1   BANK2   BANK3   BANK4   BANK5   BANK6   BANK7   BANK8   BANK9  BANK10  BANK1
      +1  BANK12
  1250 ;;      Params:         4       0       0       0       0       0       0       0       0       0       0       0       
      +0       0
  1251 ;;      Locals:         6       0       0       0       0       0       0       0       0       0       0       0       
      +0       0
  1252 ;;      Temps:          4       0       0       0       0       0       0       0       0       0       0       0       
      +0       0
  1253 ;;      Totals:        14       0       0       0       0       0       0       0       0       0       0       0       
      +0       0
  1254 ;;Total ram usage:       14 bytes
  1255 ;; Hardware stack levels used: 1
  1256 ;; This function calls:
  1257 ;;		Nothing
  1258 ;; This function is called by:
  1259 ;;		_main
  1260 ;;		_I2C_SHT4x_read
  1261 ;; This function uses a non-reentrant model
  1262 ;;
  1263                           
  1264     0518                     ___xxtofl:	
  1265                           ;psect for function ___xxtofl
  1266                           
  1267                           
  1268                           ;incstack = 0
  1269                           ; Regs used in ___xxtofl: [wreg+status,2+status,0]
  1270                           ;___xxtofl@sign stored from wreg
  1271     0518  00F8               	movwf	___xxtofl@sign
  1272     0519                     l1655:
  1273     0519  0878               	movf	___xxtofl@sign,w
  1274     051A  1903               	btfsc	3,2
  1275     051B  2D1D               	goto	u1431
  1276     051C  2D1E               	goto	u1430
  1277     051D                     u1431:
  1278     051D  2D32               	goto	l1661
  1279     051E                     u1430:
  1280     051E                     l1657:
  1281     051E  1FF3               	btfss	___xxtofl@val+3,7
  1282     051F  2D21               	goto	u1441
  1283     0520  2D22               	goto	u1440
  1284     0521                     u1441:
  1285     0521  2D32               	goto	l1661
  1286     0522                     u1440:
  1287     0522                     l1659:
  1288     0522  0970               	comf	___xxtofl@val,w
  1289     0523  00FA               	movwf	___xxtofl@arg
  1290     0524  0971               	comf	___xxtofl@val+1,w
  1291     0525  00FB               	movwf	___xxtofl@arg+1
  1292     0526  0972               	comf	___xxtofl@val+2,w
  1293     0527  00FC               	movwf	___xxtofl@arg+2
  1294     0528  0973               	comf	___xxtofl@val+3,w
  1295     0529  00FD               	movwf	___xxtofl@arg+3
  1296     052A  0AFA               	incf	___xxtofl@arg,f
  1297     052B  1903               	skipnz
  1298     052C  0AFB               	incf	___xxtofl@arg+1,f
  1299     052D  1903               	skipnz
  1300     052E  0AFC               	incf	___xxtofl@arg+2,f
  1301     052F  1903               	skipnz
  1302     0530  0AFD               	incf	___xxtofl@arg+3,f
  1303     0531  2D3A               	goto	l754
  1304     0532                     l1661:
  1305     0532  0873               	movf	___xxtofl@val+3,w
  1306     0533  00FD               	movwf	___xxtofl@arg+3
  1307     0534  0872               	movf	___xxtofl@val+2,w
  1308     0535  00FC               	movwf	___xxtofl@arg+2
  1309     0536  0871               	movf	___xxtofl@val+1,w
  1310     0537  00FB               	movwf	___xxtofl@arg+1
  1311     0538  0870               	movf	___xxtofl@val,w
  1312     0539  00FA               	movwf	___xxtofl@arg
  1313     053A                     l754:
  1314     053A  0873               	movf	___xxtofl@val+3,w
  1315     053B  0472               	iorwf	___xxtofl@val+2,w
  1316     053C  0471               	iorwf	___xxtofl@val+1,w
  1317     053D  0470               	iorwf	___xxtofl@val,w
  1318     053E  1D03               	skipz
  1319     053F  2D41               	goto	u1451
  1320     0540  2D42               	goto	u1450
  1321     0541                     u1451:
  1322     0541  2D4B               	goto	l1667
  1323     0542                     u1450:
  1324     0542                     l1663:
  1325     0542  3000               	movlw	0
  1326     0543  00F3               	movwf	?___xxtofl+3
  1327     0544  3000               	movlw	0
  1328     0545  00F2               	movwf	?___xxtofl+2
  1329     0546  3000               	movlw	0
  1330     0547  00F1               	movwf	?___xxtofl+1
  1331     0548  3000               	movlw	0
  1332     0549  00F0               	movwf	?___xxtofl
  1333     054A  2DC1               	goto	l756
  1334     054B                     l1667:
  1335     054B  3096               	movlw	150
  1336     054C  00F9               	movwf	___xxtofl@exp
  1337     054D  2D59               	goto	l1671
  1338     054E                     l1669:
  1339     054E  3001               	movlw	1
  1340     054F  00F4               	movwf	??___xxtofl
  1341     0550  0874               	movf	??___xxtofl,w
  1342     0551  07F9               	addwf	___xxtofl@exp,f
  1343     0552  3001               	movlw	1
  1344     0553                     u1465:
  1345     0553  36FD               	lsrf	___xxtofl@arg+3,f
  1346     0554  0CFC               	rrf	___xxtofl@arg+2,f
  1347     0555  0CFB               	rrf	___xxtofl@arg+1,f
  1348     0556  0CFA               	rrf	___xxtofl@arg,f
  1349     0557  0B89               	decfsz	9,f
  1350     0558  2D53               	goto	u1465
  1351     0559                     l1671:
  1352     0559  30FE               	movlw	254
  1353     055A  057D               	andwf	___xxtofl@arg+3,w
  1354     055B  1D03               	btfss	3,2
  1355     055C  2D5E               	goto	u1471
  1356     055D  2D5F               	goto	u1470
  1357     055E                     u1471:
  1358     055E  2D4E               	goto	l1669
  1359     055F                     u1470:
  1360     055F  2D73               	goto	l760
  1361     0560                     l1673:
  1362     0560  3001               	movlw	1
  1363     0561  00F4               	movwf	??___xxtofl
  1364     0562  0874               	movf	??___xxtofl,w
  1365     0563  07F9               	addwf	___xxtofl@exp,f
  1366     0564                     l1675:
  1367     0564  3001               	movlw	1
  1368     0565  07FA               	addwf	___xxtofl@arg,f
  1369     0566  3000               	movlw	0
  1370     0567  3DFB               	addwfc	___xxtofl@arg+1,f
  1371     0568  3000               	movlw	0
  1372     0569  3DFC               	addwfc	___xxtofl@arg+2,f
  1373     056A  3000               	movlw	0
  1374     056B  3DFD               	addwfc	___xxtofl@arg+3,f
  1375     056C                     l1677:
  1376     056C  3001               	movlw	1
  1377     056D                     u1485:
  1378     056D  36FD               	lsrf	___xxtofl@arg+3,f
  1379     056E  0CFC               	rrf	___xxtofl@arg+2,f
  1380     056F  0CFB               	rrf	___xxtofl@arg+1,f
  1381     0570  0CFA               	rrf	___xxtofl@arg,f
  1382     0571  0B89               	decfsz	9,f
  1383     0572  2D6D               	goto	u1485
  1384     0573                     l760:
  1385     0573  30FF               	movlw	255
  1386     0574  057D               	andwf	___xxtofl@arg+3,w
  1387     0575  1D03               	btfss	3,2
  1388     0576  2D78               	goto	u1491
  1389     0577  2D79               	goto	u1490
  1390     0578                     u1491:
  1391     0578  2D60               	goto	l1673
  1392     0579                     u1490:
  1393     0579  2D83               	goto	l1681
  1394     057A                     l1679:
  1395     057A  3001               	movlw	1
  1396     057B  02F9               	subwf	___xxtofl@exp,f
  1397     057C  3001               	movlw	1
  1398     057D                     u1505:
  1399     057D  35FA               	lslf	___xxtofl@arg,f
  1400     057E  0DFB               	rlf	___xxtofl@arg+1,f
  1401     057F  0DFC               	rlf	___xxtofl@arg+2,f
  1402     0580  0DFD               	rlf	___xxtofl@arg+3,f
  1403     0581  0B89               	decfsz	9,f
  1404     0582  2D7D               	goto	u1505
  1405     0583                     l1681:
  1406     0583  1BFC               	btfsc	___xxtofl@arg+2,7
  1407     0584  2D86               	goto	u1511
  1408     0585  2D87               	goto	u1510
  1409     0586                     u1511:
  1410     0586  2D8D               	goto	l767
  1411     0587                     u1510:
  1412     0587                     l1683:
  1413     0587  3002               	movlw	2
  1414     0588  0279               	subwf	___xxtofl@exp,w
  1415     0589  1803               	skipnc
  1416     058A  2D8C               	goto	u1521
  1417     058B  2D8D               	goto	u1520
  1418     058C                     u1521:
  1419     058C  2D7A               	goto	l1679
  1420     058D                     u1520:
  1421     058D                     l767:
  1422     058D  1879               	btfsc	___xxtofl@exp,0
  1423     058E  2D90               	goto	u1531
  1424     058F  2D91               	goto	u1530
  1425     0590                     u1531:
  1426     0590  2D99               	goto	l768
  1427     0591                     u1530:
  1428     0591                     l1685:
  1429     0591  30FF               	movlw	255
  1430     0592  05FA               	andwf	___xxtofl@arg,f
  1431     0593  30FF               	movlw	255
  1432     0594  05FB               	andwf	___xxtofl@arg+1,f
  1433     0595  307F               	movlw	127
  1434     0596  05FC               	andwf	___xxtofl@arg+2,f
  1435     0597  30FF               	movlw	255
  1436     0598  05FD               	andwf	___xxtofl@arg+3,f
  1437     0599                     l768:
  1438     0599  1003               	clrc
  1439     059A  0CF9               	rrf	___xxtofl@exp,f
  1440     059B                     l1687:
  1441     059B  0879               	movf	___xxtofl@exp,w
  1442     059C  00F4               	movwf	??___xxtofl
  1443     059D  01F5               	clrf	??___xxtofl+1
  1444     059E  01F6               	clrf	??___xxtofl+2
  1445     059F  01F7               	clrf	??___xxtofl+3
  1446     05A0  3018               	movlw	24
  1447     05A1                     u1545:
  1448     05A1  35F4               	lslf	??___xxtofl,f
  1449     05A2  0DF5               	rlf	??___xxtofl+1,f
  1450     05A3  0DF6               	rlf	??___xxtofl+2,f
  1451     05A4  0DF7               	rlf	??___xxtofl+3,f
  1452     05A5                     u1540:
  1453     05A5  0B89               	decfsz	9,f
  1454     05A6  2DA1               	goto	u1545
  1455     05A7  0874               	movf	??___xxtofl,w
  1456     05A8  04FA               	iorwf	___xxtofl@arg,f
  1457     05A9  0875               	movf	??___xxtofl+1,w
  1458     05AA  04FB               	iorwf	___xxtofl@arg+1,f
  1459     05AB  0876               	movf	??___xxtofl+2,w
  1460     05AC  04FC               	iorwf	___xxtofl@arg+2,f
  1461     05AD  0877               	movf	??___xxtofl+3,w
  1462     05AE  04FD               	iorwf	___xxtofl@arg+3,f
  1463     05AF                     l1689:
  1464     05AF  0878               	movf	___xxtofl@sign,w
  1465     05B0  1903               	btfsc	3,2
  1466     05B1  2DB3               	goto	u1551
  1467     05B2  2DB4               	goto	u1550
  1468     05B3                     u1551:
  1469     05B3  2DB9               	goto	l1695
  1470     05B4                     u1550:
  1471     05B4                     l1691:
  1472     05B4  1FF3               	btfss	___xxtofl@val+3,7
  1473     05B5  2DB7               	goto	u1561
  1474     05B6  2DB8               	goto	u1560
  1475     05B7                     u1561:
  1476     05B7  2DB9               	goto	l1695
  1477     05B8                     u1560:
  1478     05B8                     l1693:
  1479     05B8  17FD               	bsf	___xxtofl@arg+3,7
  1480     05B9                     l1695:
  1481     05B9  087D               	movf	___xxtofl@arg+3,w
  1482     05BA  00F3               	movwf	?___xxtofl+3
  1483     05BB  087C               	movf	___xxtofl@arg+2,w
  1484     05BC  00F2               	movwf	?___xxtofl+2
  1485     05BD  087B               	movf	___xxtofl@arg+1,w
  1486     05BE  00F1               	movwf	?___xxtofl+1
  1487     05BF  087A               	movf	___xxtofl@arg,w
  1488     05C0  00F0               	movwf	?___xxtofl
  1489     05C1                     l756:
  1490     05C1  0008               	return
  1491     05C2                     __end_of___xxtofl:
  1492                           
  1493                           	psect	text2
  1494     04A7                     __ptext2:	
  1495 ;; *************** function ___fltol *****************
  1496 ;; Defined at:
  1497 ;;		line 43 in file "C:\Program Files\Microchip\xc8\v2.40\pic\sources\c99\common\fltol.c"
  1498 ;; Parameters:    Size  Location     Type
  1499 ;;  f1              4   26[BANK0 ] unsigned char 
  1500 ;; Auto vars:     Size  Location     Type
  1501 ;;  exp1            1   35[BANK0 ] unsigned char 
  1502 ;;  sign1           1   34[BANK0 ] unsigned char 
  1503 ;; Return value:  Size  Location     Type
  1504 ;;                  4   26[BANK0 ] long 
  1505 ;; Registers used:
  1506 ;;		wreg, status,2, status,0
  1507 ;; Tracked objects:
  1508 ;;		On entry : 0/0
  1509 ;;		On exit  : 0/0
  1510 ;;		Unchanged: 0/0
  1511 ;; Data sizes:     COMMON   BANK0   BANK1   BANK2   BANK3   BANK4   BANK5   BANK6   BANK7   BANK8   BANK9  BANK10  BANK1
      +1  BANK12
  1512 ;;      Params:         0       4       0       0       0       0       0       0       0       0       0       0       
      +0       0
  1513 ;;      Locals:         0       2       0       0       0       0       0       0       0       0       0       0       
      +0       0
  1514 ;;      Temps:          0       4       0       0       0       0       0       0       0       0       0       0       
      +0       0
  1515 ;;      Totals:         0      10       0       0       0       0       0       0       0       0       0       0       
      +0       0
  1516 ;;Total ram usage:       10 bytes
  1517 ;; Hardware stack levels used: 1
  1518 ;; This function calls:
  1519 ;;		Nothing
  1520 ;; This function is called by:
  1521 ;;		_main
  1522 ;; This function uses a non-reentrant model
  1523 ;;
  1524                           
  1525     04A7                     ___fltol:	
  1526                           ;psect for function ___fltol
  1527                           
  1528     04A7                     l1479:	
  1529                           ;incstack = 0
  1530                           ; Regs used in ___fltol: [wreg+status,2+status,0]
  1531                           
  1532     04A7  1003               	clrc
  1533     04A8  0140               	movlb	0	; select bank0
  1534     04A9  0D3C               	rlf	___fltol@f1+2,w
  1535     04AA  0D3D               	rlf	___fltol@f1+3,w
  1536     04AB  00C3               	movwf	___fltol@exp1
  1537     04AC  0843               	movf	___fltol@exp1,w
  1538     04AD  1D03               	btfss	3,2
  1539     04AE  2CB0               	goto	u1071
  1540     04AF  2CB1               	goto	u1070
  1541     04B0                     u1071:
  1542     04B0  2CBA               	goto	l1485
  1543     04B1                     u1070:
  1544     04B1                     l1481:
  1545     04B1  3000               	movlw	0
  1546     04B2  00BD               	movwf	?___fltol+3
  1547     04B3  3000               	movlw	0
  1548     04B4  00BC               	movwf	?___fltol+2
  1549     04B5  3000               	movlw	0
  1550     04B6  00BB               	movwf	?___fltol+1
  1551     04B7  3000               	movlw	0
  1552     04B8  00BA               	movwf	?___fltol
  1553     04B9  2D17               	goto	l507
  1554     04BA                     l1485:
  1555     04BA  083A               	movf	___fltol@f1,w
  1556     04BB  00BE               	movwf	??___fltol
  1557     04BC  083B               	movf	___fltol@f1+1,w
  1558     04BD  00BF               	movwf	??___fltol+1
  1559     04BE  083C               	movf	___fltol@f1+2,w
  1560     04BF  00C0               	movwf	??___fltol+2
  1561     04C0  083D               	movf	___fltol@f1+3,w
  1562     04C1  00C1               	movwf	??___fltol+3
  1563     04C2  301F               	movlw	31
  1564     04C3                     u1085:
  1565     04C3  36C1               	lsrf	??___fltol+3,f
  1566     04C4  0CC0               	rrf	??___fltol+2,f
  1567     04C5  0CBF               	rrf	??___fltol+1,f
  1568     04C6  0CBE               	rrf	??___fltol,f
  1569     04C7                     u1080:
  1570     04C7  0B89               	decfsz	9,f
  1571     04C8  2CC3               	goto	u1085
  1572     04C9  083E               	movf	??___fltol,w
  1573     04CA  00C2               	movwf	___fltol@sign1
  1574     04CB                     l1487:
  1575     04CB  17BC               	bsf	___fltol@f1+2,7
  1576     04CC                     l1489:
  1577     04CC  30FF               	movlw	255
  1578     04CD  05BA               	andwf	___fltol@f1,f
  1579     04CE  30FF               	movlw	255
  1580     04CF  05BB               	andwf	___fltol@f1+1,f
  1581     04D0  30FF               	movlw	255
  1582     04D1  05BC               	andwf	___fltol@f1+2,f
  1583     04D2  3000               	movlw	0
  1584     04D3  05BD               	andwf	___fltol@f1+3,f
  1585     04D4                     l1491:
  1586     04D4  3096               	movlw	150
  1587     04D5  02C3               	subwf	___fltol@exp1,f
  1588     04D6                     l1493:
  1589     04D6  1FC3               	btfss	___fltol@exp1,7
  1590     04D7  2CD9               	goto	u1091
  1591     04D8  2CDA               	goto	u1090
  1592     04D9                     u1091:
  1593     04D9  2CF2               	goto	l1503
  1594     04DA                     u1090:
  1595     04DA                     l1495:
  1596     04DA  0843               	movf	___fltol@exp1,w
  1597     04DB  3A80               	xorlw	128
  1598     04DC  3E97               	addlw	151
  1599     04DD  1803               	skipnc
  1600     04DE  2CE0               	goto	u1101
  1601     04DF  2CE1               	goto	u1100
  1602     04E0                     u1101:
  1603     04E0  2CE2               	goto	l1501
  1604     04E1                     u1100:
  1605     04E1  2CB1               	goto	l1481
  1606     04E2                     l1501:
  1607     04E2  3001               	movlw	1
  1608     04E3                     u1115:
  1609     04E3  36BD               	lsrf	___fltol@f1+3,f
  1610     04E4  0CBC               	rrf	___fltol@f1+2,f
  1611     04E5  0CBB               	rrf	___fltol@f1+1,f
  1612     04E6  0CBA               	rrf	___fltol@f1,f
  1613     04E7  0B89               	decfsz	9,f
  1614     04E8  2CE3               	goto	u1115
  1615     04E9  3001               	movlw	1
  1616     04EA  00BE               	movwf	??___fltol
  1617     04EB  083E               	movf	??___fltol,w
  1618     04EC  07C3               	addwf	___fltol@exp1,f
  1619     04ED  1D03               	btfss	3,2
  1620     04EE  2CF0               	goto	u1121
  1621     04EF  2CF1               	goto	u1120
  1622     04F0                     u1121:
  1623     04F0  2CE2               	goto	l1501
  1624     04F1                     u1120:
  1625     04F1  2D07               	goto	l1511
  1626     04F2                     l1503:
  1627     04F2  3020               	movlw	32
  1628     04F3  0243               	subwf	___fltol@exp1,w
  1629     04F4  1C03               	skipc
  1630     04F5  2CF7               	goto	u1131
  1631     04F6  2CF8               	goto	u1130
  1632     04F7                     u1131:
  1633     04F7  2D02               	goto	l514
  1634     04F8                     u1130:
  1635     04F8  2CB1               	goto	l1481
  1636     04F9                     l1509:
  1637     04F9  3001               	movlw	1
  1638     04FA                     u1145:
  1639     04FA  35BA               	lslf	___fltol@f1,f
  1640     04FB  0DBB               	rlf	___fltol@f1+1,f
  1641     04FC  0DBC               	rlf	___fltol@f1+2,f
  1642     04FD  0DBD               	rlf	___fltol@f1+3,f
  1643     04FE  0B89               	decfsz	9,f
  1644     04FF  2CFA               	goto	u1145
  1645     0500  3001               	movlw	1
  1646     0501  02C3               	subwf	___fltol@exp1,f
  1647     0502                     l514:
  1648     0502  0843               	movf	___fltol@exp1,w
  1649     0503  1D03               	btfss	3,2
  1650     0504  2D06               	goto	u1151
  1651     0505  2D07               	goto	u1150
  1652     0506                     u1151:
  1653     0506  2CF9               	goto	l1509
  1654     0507                     u1150:
  1655     0507                     l1511:
  1656     0507  0842               	movf	___fltol@sign1,w
  1657     0508  1903               	btfsc	3,2
  1658     0509  2D0B               	goto	u1161
  1659     050A  2D0C               	goto	u1160
  1660     050B                     u1161:
  1661     050B  2D17               	goto	l517
  1662     050C                     u1160:
  1663     050C                     l1513:
  1664     050C  09BA               	comf	___fltol@f1,f
  1665     050D  09BB               	comf	___fltol@f1+1,f
  1666     050E  09BC               	comf	___fltol@f1+2,f
  1667     050F  09BD               	comf	___fltol@f1+3,f
  1668     0510  0ABA               	incf	___fltol@f1,f
  1669     0511  1903               	skipnz
  1670     0512  0ABB               	incf	___fltol@f1+1,f
  1671     0513  1903               	skipnz
  1672     0514  0ABC               	incf	___fltol@f1+2,f
  1673     0515  1903               	skipnz
  1674     0516  0ABD               	incf	___fltol@f1+3,f
  1675     0517                     l517:
  1676     0517                     l507:
  1677     0517  0008               	return
  1678     0518                     __end_of___fltol:
  1679                           
  1680                           	psect	text3
  1681     05C2                     __ptext3:	
  1682 ;; *************** function ___flmul *****************
  1683 ;; Defined at:
  1684 ;;		line 8 in file "C:\Program Files\Microchip\xc8\v2.40\pic\sources\c99\common\sprcmul.c"
  1685 ;; Parameters:    Size  Location     Type
  1686 ;;  b               4    0[BANK0 ] long 
  1687 ;;  a               4    4[BANK0 ] long 
  1688 ;; Auto vars:     Size  Location     Type
  1689 ;;  prod            4   20[BANK0 ] struct .
  1690 ;;  grs             4   14[BANK0 ] unsigned long 
  1691 ;;  temp            2   24[BANK0 ] struct .
  1692 ;;  bexp            1   19[BANK0 ] unsigned char 
  1693 ;;  aexp            1   18[BANK0 ] unsigned char 
  1694 ;;  sign            1   13[BANK0 ] unsigned char 
  1695 ;; Return value:  Size  Location     Type
  1696 ;;                  4    0[BANK0 ] unsigned char 
  1697 ;; Registers used:
  1698 ;;		wreg, status,2, status,0, pclath, cstack
  1699 ;; Tracked objects:
  1700 ;;		On entry : 0/0
  1701 ;;		On exit  : 0/0
  1702 ;;		Unchanged: 0/0
  1703 ;; Data sizes:     COMMON   BANK0   BANK1   BANK2   BANK3   BANK4   BANK5   BANK6   BANK7   BANK8   BANK9  BANK10  BANK1
      +1  BANK12
  1704 ;;      Params:         0       8       0       0       0       0       0       0       0       0       0       0       
      +0       0
  1705 ;;      Locals:         0      13       0       0       0       0       0       0       0       0       0       0       
      +0       0
  1706 ;;      Temps:          0       5       0       0       0       0       0       0       0       0       0       0       
      +0       0
  1707 ;;      Totals:         0      26       0       0       0       0       0       0       0       0       0       0       
      +0       0
  1708 ;;Total ram usage:       26 bytes
  1709 ;; Hardware stack levels used: 1
  1710 ;; Hardware stack levels required when called: 1
  1711 ;; This function calls:
  1712 ;;		__Umul8_16
  1713 ;; This function is called by:
  1714 ;;		_main
  1715 ;;		_I2C_SHT4x_read
  1716 ;; This function uses a non-reentrant model
  1717 ;;
  1718                           
  1719     05C2                     ___flmul:	
  1720                           ;psect for function ___flmul
  1721                           
  1722     05C2                     l1515:	
  1723                           ;incstack = 0
  1724                           ; Regs used in ___flmul: [wreg+status,2+status,0+pclath+cstack]
  1725                           
  1726     05C2  0140               	movlb	0	; select bank0
  1727     05C3  0823               	movf	___flmul@b+3,w
  1728     05C4  3980               	andlw	128
  1729     05C5  00AD               	movwf	___flmul@sign
  1730     05C6                     l1517:
  1731     05C6  3523               	lslf	___flmul@b+3,w
  1732     05C7  00B3               	movwf	___flmul@bexp
  1733     05C8                     l1519:
  1734     05C8  1FA2               	btfss	___flmul@b+2,7
  1735     05C9  2DCB               	goto	u1171
  1736     05CA  2DCC               	goto	u1170
  1737     05CB                     u1171:
  1738     05CB  2DCD               	goto	l1523
  1739     05CC                     u1170:
  1740     05CC                     l1521:
  1741     05CC  1433               	bsf	___flmul@bexp,0
  1742     05CD                     l1523:
  1743     05CD  0833               	movf	___flmul@bexp,w
  1744     05CE  1903               	btfsc	3,2
  1745     05CF  2DD1               	goto	u1181
  1746     05D0  2DD2               	goto	u1180
  1747     05D1                     u1181:
  1748     05D1  2DE1               	goto	l1531
  1749     05D2                     u1180:
  1750     05D2                     l1525:
  1751     05D2  0A33               	incf	___flmul@bexp,w
  1752     05D3  1D03               	btfss	3,2
  1753     05D4  2DD6               	goto	u1191
  1754     05D5  2DD7               	goto	u1190
  1755     05D6                     u1191:
  1756     05D6  2DDF               	goto	l1529
  1757     05D7                     u1190:
  1758     05D7                     l1527:
  1759     05D7  3000               	movlw	0
  1760     05D8  00A3               	movwf	___flmul@b+3
  1761     05D9  3000               	movlw	0
  1762     05DA  00A2               	movwf	___flmul@b+2
  1763     05DB  3000               	movlw	0
  1764     05DC  00A1               	movwf	___flmul@b+1
  1765     05DD  3000               	movlw	0
  1766     05DE  00A0               	movwf	___flmul@b
  1767     05DF                     l1529:
  1768     05DF  17A2               	bsf	___flmul@b+2,7
  1769     05E0  2DE9               	goto	l1533
  1770     05E1                     l1531:
  1771     05E1  3000               	movlw	0
  1772     05E2  00A3               	movwf	___flmul@b+3
  1773     05E3  3000               	movlw	0
  1774     05E4  00A2               	movwf	___flmul@b+2
  1775     05E5  3000               	movlw	0
  1776     05E6  00A1               	movwf	___flmul@b+1
  1777     05E7  3000               	movlw	0
  1778     05E8  00A0               	movwf	___flmul@b
  1779     05E9                     l1533:
  1780     05E9  0827               	movf	___flmul@a+3,w
  1781     05EA  3980               	andlw	128
  1782     05EB  00A8               	movwf	??___flmul
  1783     05EC  0828               	movf	??___flmul,w
  1784     05ED  06AD               	xorwf	___flmul@sign,f
  1785     05EE                     l1535:
  1786     05EE  3527               	lslf	___flmul@a+3,w
  1787     05EF  00B2               	movwf	___flmul@aexp
  1788     05F0                     l1537:
  1789     05F0  1FA6               	btfss	___flmul@a+2,7
  1790     05F1  2DF3               	goto	u1201
  1791     05F2  2DF4               	goto	u1200
  1792     05F3                     u1201:
  1793     05F3  2DF5               	goto	l1541
  1794     05F4                     u1200:
  1795     05F4                     l1539:
  1796     05F4  1432               	bsf	___flmul@aexp,0
  1797     05F5                     l1541:
  1798     05F5  0832               	movf	___flmul@aexp,w
  1799     05F6  1903               	btfsc	3,2
  1800     05F7  2DF9               	goto	u1211
  1801     05F8  2DFA               	goto	u1210
  1802     05F9                     u1211:
  1803     05F9  2E09               	goto	l1549
  1804     05FA                     u1210:
  1805     05FA                     l1543:
  1806     05FA  0A32               	incf	___flmul@aexp,w
  1807     05FB  1D03               	btfss	3,2
  1808     05FC  2DFE               	goto	u1221
  1809     05FD  2DFF               	goto	u1220
  1810     05FE                     u1221:
  1811     05FE  2E07               	goto	l1547
  1812     05FF                     u1220:
  1813     05FF                     l1545:
  1814     05FF  3000               	movlw	0
  1815     0600  00A7               	movwf	___flmul@a+3
  1816     0601  3000               	movlw	0
  1817     0602  00A6               	movwf	___flmul@a+2
  1818     0603  3000               	movlw	0
  1819     0604  00A5               	movwf	___flmul@a+1
  1820     0605  3000               	movlw	0
  1821     0606  00A4               	movwf	___flmul@a
  1822     0607                     l1547:
  1823     0607  17A6               	bsf	___flmul@a+2,7
  1824     0608  2E11               	goto	l1551
  1825     0609                     l1549:
  1826     0609  3000               	movlw	0
  1827     060A  00A7               	movwf	___flmul@a+3
  1828     060B  3000               	movlw	0
  1829     060C  00A6               	movwf	___flmul@a+2
  1830     060D  3000               	movlw	0
  1831     060E  00A5               	movwf	___flmul@a+1
  1832     060F  3000               	movlw	0
  1833     0610  00A4               	movwf	___flmul@a
  1834     0611                     l1551:
  1835     0611  0832               	movf	___flmul@aexp,w
  1836     0612  1903               	btfsc	3,2
  1837     0613  2E15               	goto	u1231
  1838     0614  2E16               	goto	u1230
  1839     0615                     u1231:
  1840     0615  2E1B               	goto	l1555
  1841     0616                     u1230:
  1842     0616                     l1553:
  1843     0616  0833               	movf	___flmul@bexp,w
  1844     0617  1D03               	btfss	3,2
  1845     0618  2E1A               	goto	u1241
  1846     0619  2E1B               	goto	u1240
  1847     061A                     u1241:
  1848     061A  2E24               	goto	l1559
  1849     061B                     u1240:
  1850     061B                     l1555:
  1851     061B  3000               	movlw	0
  1852     061C  00A3               	movwf	?___flmul+3
  1853     061D  3000               	movlw	0
  1854     061E  00A2               	movwf	?___flmul+2
  1855     061F  3000               	movlw	0
  1856     0620  00A1               	movwf	?___flmul+1
  1857     0621  3000               	movlw	0
  1858     0622  00A0               	movwf	?___flmul
  1859     0623  2FFC               	goto	l710
  1860     0624                     l1559:
  1861     0624  0820               	movf	___flmul@b,w
  1862     0625  00F0               	movwf	__Umul8_16@multiplicand
  1863     0626  0826               	movf	___flmul@a+2,w
  1864     0627  3182  22C1  3185   	fcall	__Umul8_16
  1865     062A  0871               	movf	?__Umul8_16+1,w
  1866     062B  0140               	movlb	0	; select bank0
  1867     062C  00B9               	movwf	___flmul@temp+1
  1868     062D  0870               	movf	?__Umul8_16,w
  1869     062E  00B8               	movwf	___flmul@temp
  1870     062F                     l1561:
  1871     062F  0838               	movf	___flmul@temp,w
  1872     0630  00A8               	movwf	??___flmul
  1873     0631  01A9               	clrf	??___flmul+1
  1874     0632  01AA               	clrf	??___flmul+2
  1875     0633  01AB               	clrf	??___flmul+3
  1876     0634  082B               	movf	??___flmul+3,w
  1877     0635  00B1               	movwf	___flmul@grs+3
  1878     0636  082A               	movf	??___flmul+2,w
  1879     0637  00B0               	movwf	___flmul@grs+2
  1880     0638  0829               	movf	??___flmul+1,w
  1881     0639  00AF               	movwf	___flmul@grs+1
  1882     063A  0828               	movf	??___flmul,w
  1883     063B  00AE               	movwf	___flmul@grs
  1884     063C                     l1563:
  1885     063C  0839               	movf	___flmul@temp+1,w
  1886     063D  00A8               	movwf	??___flmul
  1887     063E  01A9               	clrf	??___flmul+1
  1888     063F  01AA               	clrf	??___flmul+2
  1889     0640  01AB               	clrf	??___flmul+3
  1890     0641  082B               	movf	??___flmul+3,w
  1891     0642  00B7               	movwf	___flmul@prod+3
  1892     0643  082A               	movf	??___flmul+2,w
  1893     0644  00B6               	movwf	___flmul@prod+2
  1894     0645  0829               	movf	??___flmul+1,w
  1895     0646  00B5               	movwf	___flmul@prod+1
  1896     0647  0828               	movf	??___flmul,w
  1897     0648  00B4               	movwf	___flmul@prod
  1898     0649  0821               	movf	___flmul@b+1,w
  1899     064A  00F0               	movwf	__Umul8_16@multiplicand
  1900     064B  0825               	movf	___flmul@a+1,w
  1901     064C  3182  22C1  3185   	fcall	__Umul8_16
  1902     064F  0871               	movf	?__Umul8_16+1,w
  1903     0650  0140               	movlb	0	; select bank0
  1904     0651  00B9               	movwf	___flmul@temp+1
  1905     0652  0870               	movf	?__Umul8_16,w
  1906     0653  00B8               	movwf	___flmul@temp
  1907     0654                     l1565:
  1908     0654  0838               	movf	___flmul@temp,w
  1909     0655  00A8               	movwf	??___flmul
  1910     0656  01A9               	clrf	??___flmul+1
  1911     0657  01AA               	clrf	??___flmul+2
  1912     0658  01AB               	clrf	??___flmul+3
  1913     0659  0828               	movf	??___flmul,w
  1914     065A  07AE               	addwf	___flmul@grs,f
  1915     065B  0829               	movf	??___flmul+1,w
  1916     065C  3DAF               	addwfc	___flmul@grs+1,f
  1917     065D  082A               	movf	??___flmul+2,w
  1918     065E  3DB0               	addwfc	___flmul@grs+2,f
  1919     065F  082B               	movf	??___flmul+3,w
  1920     0660  3DB1               	addwfc	___flmul@grs+3,f
  1921     0661                     l1567:
  1922     0661  0839               	movf	___flmul@temp+1,w
  1923     0662  00A8               	movwf	??___flmul
  1924     0663  01A9               	clrf	??___flmul+1
  1925     0664  01AA               	clrf	??___flmul+2
  1926     0665  01AB               	clrf	??___flmul+3
  1927     0666  0828               	movf	??___flmul,w
  1928     0667  07B4               	addwf	___flmul@prod,f
  1929     0668  0829               	movf	??___flmul+1,w
  1930     0669  3DB5               	addwfc	___flmul@prod+1,f
  1931     066A  082A               	movf	??___flmul+2,w
  1932     066B  3DB6               	addwfc	___flmul@prod+2,f
  1933     066C  082B               	movf	??___flmul+3,w
  1934     066D  3DB7               	addwfc	___flmul@prod+3,f
  1935     066E  0822               	movf	___flmul@b+2,w
  1936     066F  00F0               	movwf	__Umul8_16@multiplicand
  1937     0670  0824               	movf	___flmul@a,w
  1938     0671  3182  22C1  3185   	fcall	__Umul8_16
  1939     0674  0871               	movf	?__Umul8_16+1,w
  1940     0675  0140               	movlb	0	; select bank0
  1941     0676  00B9               	movwf	___flmul@temp+1
  1942     0677  0870               	movf	?__Umul8_16,w
  1943     0678  00B8               	movwf	___flmul@temp
  1944     0679                     l1569:
  1945     0679  0838               	movf	___flmul@temp,w
  1946     067A  00A8               	movwf	??___flmul
  1947     067B  01A9               	clrf	??___flmul+1
  1948     067C  01AA               	clrf	??___flmul+2
  1949     067D  01AB               	clrf	??___flmul+3
  1950     067E  0828               	movf	??___flmul,w
  1951     067F  07AE               	addwf	___flmul@grs,f
  1952     0680  0829               	movf	??___flmul+1,w
  1953     0681  3DAF               	addwfc	___flmul@grs+1,f
  1954     0682  082A               	movf	??___flmul+2,w
  1955     0683  3DB0               	addwfc	___flmul@grs+2,f
  1956     0684  082B               	movf	??___flmul+3,w
  1957     0685  3DB1               	addwfc	___flmul@grs+3,f
  1958     0686                     l1571:
  1959     0686  0839               	movf	___flmul@temp+1,w
  1960     0687  00A8               	movwf	??___flmul
  1961     0688  01A9               	clrf	??___flmul+1
  1962     0689  01AA               	clrf	??___flmul+2
  1963     068A  01AB               	clrf	??___flmul+3
  1964     068B  0828               	movf	??___flmul,w
  1965     068C  07B4               	addwf	___flmul@prod,f
  1966     068D  0829               	movf	??___flmul+1,w
  1967     068E  3DB5               	addwfc	___flmul@prod+1,f
  1968     068F  082A               	movf	??___flmul+2,w
  1969     0690  3DB6               	addwfc	___flmul@prod+2,f
  1970     0691  082B               	movf	??___flmul+3,w
  1971     0692  3DB7               	addwfc	___flmul@prod+3,f
  1972     0693                     l1573:
  1973     0693  3008               	movlw	8
  1974     0694                     u1255:
  1975     0694  35AE               	lslf	___flmul@grs,f
  1976     0695  0DAF               	rlf	___flmul@grs+1,f
  1977     0696  0DB0               	rlf	___flmul@grs+2,f
  1978     0697  0DB1               	rlf	___flmul@grs+3,f
  1979     0698  0B89               	decfsz	9,f
  1980     0699  2E94               	goto	u1255
  1981     069A                     l1575:
  1982     069A  0821               	movf	___flmul@b+1,w
  1983     069B  00F0               	movwf	__Umul8_16@multiplicand
  1984     069C  0824               	movf	___flmul@a,w
  1985     069D  3182  22C1  3185   	fcall	__Umul8_16
  1986     06A0  0871               	movf	?__Umul8_16+1,w
  1987     06A1  0140               	movlb	0	; select bank0
  1988     06A2  00B9               	movwf	___flmul@temp+1
  1989     06A3  0870               	movf	?__Umul8_16,w
  1990     06A4  00B8               	movwf	___flmul@temp
  1991     06A5                     l1577:
  1992     06A5  0838               	movf	___flmul@temp,w
  1993     06A6  07AE               	addwf	___flmul@grs,f
  1994     06A7  0839               	movf	___flmul@temp+1,w
  1995     06A8  3DAF               	addwfc	___flmul@grs+1,f
  1996     06A9  3000               	movlw	0
  1997     06AA  3DB0               	addwfc	___flmul@grs+2,f
  1998     06AB  3DB1               	addwfc	___flmul@grs+3,f
  1999     06AC                     l1579:
  2000     06AC  0820               	movf	___flmul@b,w
  2001     06AD  00F0               	movwf	__Umul8_16@multiplicand
  2002     06AE  0825               	movf	___flmul@a+1,w
  2003     06AF  3182  22C1  3185   	fcall	__Umul8_16
  2004     06B2  0871               	movf	?__Umul8_16+1,w
  2005     06B3  0140               	movlb	0	; select bank0
  2006     06B4  00B9               	movwf	___flmul@temp+1
  2007     06B5  0870               	movf	?__Umul8_16,w
  2008     06B6  00B8               	movwf	___flmul@temp
  2009     06B7                     l1581:
  2010     06B7  0838               	movf	___flmul@temp,w
  2011     06B8  07AE               	addwf	___flmul@grs,f
  2012     06B9  0839               	movf	___flmul@temp+1,w
  2013     06BA  3DAF               	addwfc	___flmul@grs+1,f
  2014     06BB  3000               	movlw	0
  2015     06BC  3DB0               	addwfc	___flmul@grs+2,f
  2016     06BD  3DB1               	addwfc	___flmul@grs+3,f
  2017     06BE                     l1583:
  2018     06BE  3008               	movlw	8
  2019     06BF                     u1265:
  2020     06BF  35AE               	lslf	___flmul@grs,f
  2021     06C0  0DAF               	rlf	___flmul@grs+1,f
  2022     06C1  0DB0               	rlf	___flmul@grs+2,f
  2023     06C2  0DB1               	rlf	___flmul@grs+3,f
  2024     06C3  0B89               	decfsz	9,f
  2025     06C4  2EBF               	goto	u1265
  2026     06C5  0820               	movf	___flmul@b,w
  2027     06C6  00F0               	movwf	__Umul8_16@multiplicand
  2028     06C7  0824               	movf	___flmul@a,w
  2029     06C8  3182  22C1  3185   	fcall	__Umul8_16
  2030     06CB  0871               	movf	?__Umul8_16+1,w
  2031     06CC  0140               	movlb	0	; select bank0
  2032     06CD  00B9               	movwf	___flmul@temp+1
  2033     06CE  0870               	movf	?__Umul8_16,w
  2034     06CF  00B8               	movwf	___flmul@temp
  2035     06D0                     l1585:
  2036     06D0  0838               	movf	___flmul@temp,w
  2037     06D1  07AE               	addwf	___flmul@grs,f
  2038     06D2  0839               	movf	___flmul@temp+1,w
  2039     06D3  3DAF               	addwfc	___flmul@grs+1,f
  2040     06D4  3000               	movlw	0
  2041     06D5  3DB0               	addwfc	___flmul@grs+2,f
  2042     06D6  3DB1               	addwfc	___flmul@grs+3,f
  2043     06D7                     l1587:
  2044     06D7  0821               	movf	___flmul@b+1,w
  2045     06D8  00F0               	movwf	__Umul8_16@multiplicand
  2046     06D9  0826               	movf	___flmul@a+2,w
  2047     06DA  3182  22C1  3185   	fcall	__Umul8_16
  2048     06DD  0871               	movf	?__Umul8_16+1,w
  2049     06DE  0140               	movlb	0	; select bank0
  2050     06DF  00B9               	movwf	___flmul@temp+1
  2051     06E0  0870               	movf	?__Umul8_16,w
  2052     06E1  00B8               	movwf	___flmul@temp
  2053     06E2  0838               	movf	___flmul@temp,w
  2054     06E3  07B4               	addwf	___flmul@prod,f
  2055     06E4  0839               	movf	___flmul@temp+1,w
  2056     06E5  3DB5               	addwfc	___flmul@prod+1,f
  2057     06E6  3000               	movlw	0
  2058     06E7  3DB6               	addwfc	___flmul@prod+2,f
  2059     06E8  3DB7               	addwfc	___flmul@prod+3,f
  2060     06E9                     l1589:
  2061     06E9  0822               	movf	___flmul@b+2,w
  2062     06EA  00F0               	movwf	__Umul8_16@multiplicand
  2063     06EB  0825               	movf	___flmul@a+1,w
  2064     06EC  3182  22C1  3185   	fcall	__Umul8_16
  2065     06EF  0871               	movf	?__Umul8_16+1,w
  2066     06F0  0140               	movlb	0	; select bank0
  2067     06F1  00B9               	movwf	___flmul@temp+1
  2068     06F2  0870               	movf	?__Umul8_16,w
  2069     06F3  00B8               	movwf	___flmul@temp
  2070     06F4                     l1591:
  2071     06F4  0838               	movf	___flmul@temp,w
  2072     06F5  07B4               	addwf	___flmul@prod,f
  2073     06F6  0839               	movf	___flmul@temp+1,w
  2074     06F7  3DB5               	addwfc	___flmul@prod+1,f
  2075     06F8  3000               	movlw	0
  2076     06F9  3DB6               	addwfc	___flmul@prod+2,f
  2077     06FA  3DB7               	addwfc	___flmul@prod+3,f
  2078     06FB  0822               	movf	___flmul@b+2,w
  2079     06FC  00F0               	movwf	__Umul8_16@multiplicand
  2080     06FD  0826               	movf	___flmul@a+2,w
  2081     06FE  3182  22C1  3185   	fcall	__Umul8_16
  2082     0701  0871               	movf	?__Umul8_16+1,w
  2083     0702  0140               	movlb	0	; select bank0
  2084     0703  00B9               	movwf	___flmul@temp+1
  2085     0704  0870               	movf	?__Umul8_16,w
  2086     0705  00B8               	movwf	___flmul@temp
  2087     0706                     l1593:
  2088     0706  0838               	movf	___flmul@temp,w
  2089     0707  00A8               	movwf	??___flmul
  2090     0708  0839               	movf	___flmul@temp+1,w
  2091     0709  00A9               	movwf	??___flmul+1
  2092     070A  01AA               	clrf	??___flmul+2
  2093     070B  01AB               	clrf	??___flmul+3
  2094     070C  3008               	movlw	8
  2095     070D                     u1275:
  2096     070D  35A8               	lslf	??___flmul,f
  2097     070E  0DA9               	rlf	??___flmul+1,f
  2098     070F  0DAA               	rlf	??___flmul+2,f
  2099     0710  0DAB               	rlf	??___flmul+3,f
  2100     0711                     u1270:
  2101     0711  0B89               	decfsz	9,f
  2102     0712  2F0D               	goto	u1275
  2103     0713  0828               	movf	??___flmul,w
  2104     0714  07B4               	addwf	___flmul@prod,f
  2105     0715  0829               	movf	??___flmul+1,w
  2106     0716  3DB5               	addwfc	___flmul@prod+1,f
  2107     0717  082A               	movf	??___flmul+2,w
  2108     0718  3DB6               	addwfc	___flmul@prod+2,f
  2109     0719  082B               	movf	??___flmul+3,w
  2110     071A  3DB7               	addwfc	___flmul@prod+3,f
  2111     071B                     l1595:
  2112     071B  082E               	movf	___flmul@grs,w
  2113     071C  00A8               	movwf	??___flmul
  2114     071D  082F               	movf	___flmul@grs+1,w
  2115     071E  00A9               	movwf	??___flmul+1
  2116     071F  0830               	movf	___flmul@grs+2,w
  2117     0720  00AA               	movwf	??___flmul+2
  2118     0721  0831               	movf	___flmul@grs+3,w
  2119     0722  00AB               	movwf	??___flmul+3
  2120     0723  3018               	movlw	24
  2121     0724                     u1285:
  2122     0724  36AB               	lsrf	??___flmul+3,f
  2123     0725  0CAA               	rrf	??___flmul+2,f
  2124     0726  0CA9               	rrf	??___flmul+1,f
  2125     0727  0CA8               	rrf	??___flmul,f
  2126     0728                     u1280:
  2127     0728  0B89               	decfsz	9,f
  2128     0729  2F24               	goto	u1285
  2129     072A  0828               	movf	??___flmul,w
  2130     072B  07B4               	addwf	___flmul@prod,f
  2131     072C  0829               	movf	??___flmul+1,w
  2132     072D  3DB5               	addwfc	___flmul@prod+1,f
  2133     072E  082A               	movf	??___flmul+2,w
  2134     072F  3DB6               	addwfc	___flmul@prod+2,f
  2135     0730  082B               	movf	??___flmul+3,w
  2136     0731  3DB7               	addwfc	___flmul@prod+3,f
  2137     0732                     l1597:
  2138     0732  3008               	movlw	8
  2139     0733                     u1295:
  2140     0733  35AE               	lslf	___flmul@grs,f
  2141     0734  0DAF               	rlf	___flmul@grs+1,f
  2142     0735  0DB0               	rlf	___flmul@grs+2,f
  2143     0736  0DB1               	rlf	___flmul@grs+3,f
  2144     0737  0B89               	decfsz	9,f
  2145     0738  2F33               	goto	u1295
  2146     0739                     l1599:
  2147     0739  0833               	movf	___flmul@bexp,w
  2148     073A  0732               	addwf	___flmul@aexp,w
  2149     073B  00A8               	movwf	??___flmul
  2150     073C  01A9               	clrf	??___flmul+1
  2151     073D  0DA9               	rlf	??___flmul+1,f
  2152     073E  0828               	movf	??___flmul,w
  2153     073F  3E82               	addlw	130
  2154     0740  00B8               	movwf	___flmul@temp
  2155     0741  30FF               	movlw	255
  2156     0742  3D29               	addwfc	??___flmul+1,w
  2157     0743  00B9               	movwf	___flmul@temp+1
  2158     0744  2F5C               	goto	l1611
  2159     0745                     l1601:
  2160     0745  3001               	movlw	1
  2161     0746                     u1305:
  2162     0746  35B4               	lslf	___flmul@prod,f
  2163     0747  0DB5               	rlf	___flmul@prod+1,f
  2164     0748  0DB6               	rlf	___flmul@prod+2,f
  2165     0749  0DB7               	rlf	___flmul@prod+3,f
  2166     074A  0B89               	decfsz	9,f
  2167     074B  2F46               	goto	u1305
  2168     074C                     l1603:
  2169     074C  1FB1               	btfss	___flmul@grs+3,7
  2170     074D  2F4F               	goto	u1311
  2171     074E  2F50               	goto	u1310
  2172     074F                     u1311:
  2173     074F  2F51               	goto	l1607
  2174     0750                     u1310:
  2175     0750                     l1605:
  2176     0750  1434               	bsf	___flmul@prod,0
  2177     0751                     l1607:
  2178     0751  3001               	movlw	1
  2179     0752                     u1325:
  2180     0752  35AE               	lslf	___flmul@grs,f
  2181     0753  0DAF               	rlf	___flmul@grs+1,f
  2182     0754  0DB0               	rlf	___flmul@grs+2,f
  2183     0755  0DB1               	rlf	___flmul@grs+3,f
  2184     0756  0B89               	decfsz	9,f
  2185     0757  2F52               	goto	u1325
  2186     0758                     l1609:
  2187     0758  30FF               	movlw	255
  2188     0759  07B8               	addwf	___flmul@temp,f
  2189     075A  30FF               	movlw	255
  2190     075B  3DB9               	addwfc	___flmul@temp+1,f
  2191     075C                     l1611:
  2192     075C  1FB6               	btfss	___flmul@prod+2,7
  2193     075D  2F5F               	goto	u1331
  2194     075E  2F60               	goto	u1330
  2195     075F                     u1331:
  2196     075F  2F45               	goto	l1601
  2197     0760                     u1330:
  2198     0760                     l1613:
  2199     0760  01B2               	clrf	___flmul@aexp
  2200     0761                     l1615:
  2201     0761  1FB1               	btfss	___flmul@grs+3,7
  2202     0762  2F64               	goto	u1341
  2203     0763  2F65               	goto	u1340
  2204     0764                     u1341:
  2205     0764  2F81               	goto	l1623
  2206     0765                     u1340:
  2207     0765                     l1617:
  2208     0765  30FF               	movlw	255
  2209     0766  052E               	andwf	___flmul@grs,w
  2210     0767  00A8               	movwf	??___flmul
  2211     0768  30FF               	movlw	255
  2212     0769  052F               	andwf	___flmul@grs+1,w
  2213     076A  00A9               	movwf	??___flmul+1
  2214     076B  30FF               	movlw	255
  2215     076C  0530               	andwf	___flmul@grs+2,w
  2216     076D  00AA               	movwf	??___flmul+2
  2217     076E  307F               	movlw	127
  2218     076F  0531               	andwf	___flmul@grs+3,w
  2219     0770  00AB               	movwf	??___flmul+3
  2220     0771  082B               	movf	??___flmul+3,w
  2221     0772  042A               	iorwf	??___flmul+2,w
  2222     0773  0429               	iorwf	??___flmul+1,w
  2223     0774  0428               	iorwf	??___flmul,w
  2224     0775  1903               	skipnz
  2225     0776  2F78               	goto	u1351
  2226     0777  2F79               	goto	u1350
  2227     0778                     u1351:
  2228     0778  2F7C               	goto	l716
  2229     0779                     u1350:
  2230     0779                     l1619:
  2231     0779  01B2               	clrf	___flmul@aexp
  2232     077A  0AB2               	incf	___flmul@aexp,f
  2233     077B  2F81               	goto	l1623
  2234     077C                     l716:
  2235     077C  1C34               	btfss	___flmul@prod,0
  2236     077D  2F7F               	goto	u1361
  2237     077E  2F80               	goto	u1360
  2238     077F                     u1361:
  2239     077F  2F81               	goto	l1623
  2240     0780                     u1360:
  2241     0780  2F79               	goto	l1619
  2242     0781                     l1623:
  2243     0781  0832               	movf	___flmul@aexp,w
  2244     0782  1903               	btfsc	3,2
  2245     0783  2F85               	goto	u1371
  2246     0784  2F86               	goto	u1370
  2247     0785                     u1371:
  2248     0785  2FAE               	goto	l1633
  2249     0786                     u1370:
  2250     0786                     l1625:
  2251     0786  3001               	movlw	1
  2252     0787  07B4               	addwf	___flmul@prod,f
  2253     0788  3000               	movlw	0
  2254     0789  3DB5               	addwfc	___flmul@prod+1,f
  2255     078A  3000               	movlw	0
  2256     078B  3DB6               	addwfc	___flmul@prod+2,f
  2257     078C  3000               	movlw	0
  2258     078D  3DB7               	addwfc	___flmul@prod+3,f
  2259     078E                     l1627:
  2260     078E  1C37               	btfss	___flmul@prod+3,0
  2261     078F  2F91               	goto	u1381
  2262     0790  2F92               	goto	u1380
  2263     0791                     u1381:
  2264     0791  2FAE               	goto	l1633
  2265     0792                     u1380:
  2266     0792                     l1629:
  2267     0792  0834               	movf	___flmul@prod,w
  2268     0793  00A8               	movwf	??___flmul
  2269     0794  0835               	movf	___flmul@prod+1,w
  2270     0795  00A9               	movwf	??___flmul+1
  2271     0796  0836               	movf	___flmul@prod+2,w
  2272     0797  00AA               	movwf	??___flmul+2
  2273     0798  0837               	movf	___flmul@prod+3,w
  2274     0799  00AB               	movwf	??___flmul+3
  2275     079A  3001               	movlw	1
  2276     079B  00AC               	movwf	??___flmul+4
  2277     079C                     u1395:
  2278     079C  37AB               	asrf	??___flmul+3,f
  2279     079D  0CAA               	rrf	??___flmul+2,f
  2280     079E  0CA9               	rrf	??___flmul+1,f
  2281     079F  0CA8               	rrf	??___flmul,f
  2282     07A0                     u1390:
  2283     07A0  0BAC               	decfsz	??___flmul+4,f
  2284     07A1  2F9C               	goto	u1395
  2285     07A2  082B               	movf	??___flmul+3,w
  2286     07A3  00B7               	movwf	___flmul@prod+3
  2287     07A4  082A               	movf	??___flmul+2,w
  2288     07A5  00B6               	movwf	___flmul@prod+2
  2289     07A6  0829               	movf	??___flmul+1,w
  2290     07A7  00B5               	movwf	___flmul@prod+1
  2291     07A8  0828               	movf	??___flmul,w
  2292     07A9  00B4               	movwf	___flmul@prod
  2293     07AA                     l1631:
  2294     07AA  3001               	movlw	1
  2295     07AB  07B8               	addwf	___flmul@temp,f
  2296     07AC  3000               	movlw	0
  2297     07AD  3DB9               	addwfc	___flmul@temp+1,f
  2298     07AE                     l1633:
  2299     07AE  0839               	movf	___flmul@temp+1,w
  2300     07AF  3A80               	xorlw	128
  2301     07B0  00A8               	movwf	??___flmul
  2302     07B1  3080               	movlw	128
  2303     07B2  0228               	subwf	??___flmul,w
  2304     07B3  1D03               	skipz
  2305     07B4  2FB7               	goto	u1405
  2306     07B5  30FF               	movlw	255
  2307     07B6  0238               	subwf	___flmul@temp,w
  2308     07B7                     u1405:
  2309     07B7  1C03               	skipc
  2310     07B8  2FBA               	goto	u1401
  2311     07B9  2FBB               	goto	u1400
  2312     07BA                     u1401:
  2313     07BA  2FC5               	goto	l1637
  2314     07BB                     u1400:
  2315     07BB                     l1635:
  2316     07BB  307F               	movlw	127
  2317     07BC  0140               	movlb	0	; select bank0
  2318     07BD  00B7               	movwf	___flmul@prod+3
  2319     07BE  3080               	movlw	128
  2320     07BF  00B6               	movwf	___flmul@prod+2
  2321     07C0  3000               	movlw	0
  2322     07C1  00B5               	movwf	___flmul@prod+1
  2323     07C2  3000               	movlw	0
  2324     07C3  00B4               	movwf	___flmul@prod
  2325     07C4  2FF0               	goto	l722
  2326     07C5                     l1637:
  2327     07C5  0140               	movlb	0	; select bank0
  2328     07C6  0839               	movf	___flmul@temp+1,w
  2329     07C7  3A80               	xorlw	128
  2330     07C8  00A8               	movwf	??___flmul
  2331     07C9  3080               	movlw	128
  2332     07CA  0228               	subwf	??___flmul,w
  2333     07CB  1D03               	skipz
  2334     07CC  2FCF               	goto	u1415
  2335     07CD  3001               	movlw	1
  2336     07CE  0238               	subwf	___flmul@temp,w
  2337     07CF                     u1415:
  2338     07CF  1803               	skipnc
  2339     07D0  2FD2               	goto	u1411
  2340     07D1  2FD3               	goto	u1410
  2341     07D2                     u1411:
  2342     07D2  2FDE               	goto	l1643
  2343     07D3                     u1410:
  2344     07D3                     l1639:
  2345     07D3  3000               	movlw	0
  2346     07D4  0140               	movlb	0	; select bank0
  2347     07D5  00B7               	movwf	___flmul@prod+3
  2348     07D6  3000               	movlw	0
  2349     07D7  00B6               	movwf	___flmul@prod+2
  2350     07D8  3000               	movlw	0
  2351     07D9  00B5               	movwf	___flmul@prod+1
  2352     07DA  3000               	movlw	0
  2353     07DB  00B4               	movwf	___flmul@prod
  2354     07DC                     l1641:
  2355     07DC  01AD               	clrf	___flmul@sign
  2356     07DD  2FF0               	goto	l722
  2357     07DE                     l1643:
  2358     07DE  0140               	movlb	0	; select bank0
  2359     07DF  0838               	movf	___flmul@temp,w
  2360     07E0  00B3               	movwf	___flmul@bexp
  2361     07E1  30FF               	movlw	255
  2362     07E2  05B4               	andwf	___flmul@prod,f
  2363     07E3  30FF               	movlw	255
  2364     07E4  05B5               	andwf	___flmul@prod+1,f
  2365     07E5  307F               	movlw	127
  2366     07E6  05B6               	andwf	___flmul@prod+2,f
  2367     07E7  3000               	movlw	0
  2368     07E8  05B7               	andwf	___flmul@prod+3,f
  2369     07E9                     l1645:
  2370     07E9  1C33               	btfss	___flmul@bexp,0
  2371     07EA  2FEC               	goto	u1421
  2372     07EB  2FED               	goto	u1420
  2373     07EC                     u1421:
  2374     07EC  2FEE               	goto	l1649
  2375     07ED                     u1420:
  2376     07ED                     l1647:
  2377     07ED  17B6               	bsf	___flmul@prod+2,7
  2378     07EE                     l1649:
  2379     07EE  3633               	lsrf	___flmul@bexp,w
  2380     07EF  00B7               	movwf	___flmul@prod+3
  2381     07F0                     l722:
  2382     07F0  082D               	movf	___flmul@sign,w
  2383     07F1  00A8               	movwf	??___flmul
  2384     07F2  0828               	movf	??___flmul,w
  2385     07F3  04B7               	iorwf	___flmul@prod+3,f
  2386     07F4                     l1651:
  2387     07F4  0837               	movf	___flmul@prod+3,w
  2388     07F5  00A3               	movwf	?___flmul+3
  2389     07F6  0836               	movf	___flmul@prod+2,w
  2390     07F7  00A2               	movwf	?___flmul+2
  2391     07F8  0835               	movf	___flmul@prod+1,w
  2392     07F9  00A1               	movwf	?___flmul+1
  2393     07FA  0834               	movf	___flmul@prod,w
  2394     07FB  00A0               	movwf	?___flmul
  2395     07FC                     l710:
  2396     07FC  0008               	return
  2397     07FD                     __end_of___flmul:
  2398                           
  2399                           	psect	text4
  2400     02C1                     __ptext4:	
  2401 ;; *************** function __Umul8_16 *****************
  2402 ;; Defined at:
  2403 ;;		line 4 in file "C:\Program Files\Microchip\xc8\v2.40\pic\sources\c99\common\Umul8_16.c"
  2404 ;; Parameters:    Size  Location     Type
  2405 ;;  multiplier      1    wreg     unsigned char 
  2406 ;;  multiplicand    1    0[COMMON] unsigned char 
  2407 ;; Auto vars:     Size  Location     Type
  2408 ;;  multiplier      1    8[COMMON] unsigned char 
  2409 ;;  word_mpld       2    6[COMMON] unsigned int 
  2410 ;;  product         2    4[COMMON] unsigned int 
  2411 ;; Return value:  Size  Location     Type
  2412 ;;                  2    0[COMMON] unsigned int 
  2413 ;; Registers used:
  2414 ;;		wreg, status,2, status,0
  2415 ;; Tracked objects:
  2416 ;;		On entry : 0/0
  2417 ;;		On exit  : 0/0
  2418 ;;		Unchanged: 0/0
  2419 ;; Data sizes:     COMMON   BANK0   BANK1   BANK2   BANK3   BANK4   BANK5   BANK6   BANK7   BANK8   BANK9  BANK10  BANK1
      +1  BANK12
  2420 ;;      Params:         2       0       0       0       0       0       0       0       0       0       0       0       
      +0       0
  2421 ;;      Locals:         5       0       0       0       0       0       0       0       0       0       0       0       
      +0       0
  2422 ;;      Temps:          2       0       0       0       0       0       0       0       0       0       0       0       
      +0       0
  2423 ;;      Totals:         9       0       0       0       0       0       0       0       0       0       0       0       
      +0       0
  2424 ;;Total ram usage:        9 bytes
  2425 ;; Hardware stack levels used: 1
  2426 ;; This function calls:
  2427 ;;		Nothing
  2428 ;; This function is called by:
  2429 ;;		___flmul
  2430 ;; This function uses a non-reentrant model
  2431 ;;
  2432                           
  2433     02C1                     __Umul8_16:	
  2434                           ;psect for function __Umul8_16
  2435                           
  2436                           
  2437                           ;incstack = 0
  2438                           ; Regs used in __Umul8_16: [wreg+status,2+status,0]
  2439                           ;__Umul8_16@multiplier stored from wreg
  2440     02C1  00F8               	movwf	__Umul8_16@multiplier
  2441     02C2                     l1395:
  2442     02C2  01F4               	clrf	__Umul8_16@product
  2443     02C3  01F5               	clrf	__Umul8_16@product+1
  2444     02C4                     l1397:
  2445     02C4  0870               	movf	__Umul8_16@multiplicand,w
  2446     02C5  00F2               	movwf	??__Umul8_16
  2447     02C6  01F3               	clrf	??__Umul8_16+1
  2448     02C7  0872               	movf	??__Umul8_16,w
  2449     02C8  00F6               	movwf	__Umul8_16@word_mpld
  2450     02C9  0873               	movf	??__Umul8_16+1,w
  2451     02CA  00F7               	movwf	__Umul8_16@word_mpld+1
  2452     02CB                     l1399:
  2453     02CB  1C78               	btfss	__Umul8_16@multiplier,0
  2454     02CC  2ACE               	goto	u1021
  2455     02CD  2ACF               	goto	u1020
  2456     02CE                     u1021:
  2457     02CE  2AD3               	goto	l729
  2458     02CF                     u1020:
  2459     02CF                     l1401:
  2460     02CF  0876               	movf	__Umul8_16@word_mpld,w
  2461     02D0  07F4               	addwf	__Umul8_16@product,f
  2462     02D1  0877               	movf	__Umul8_16@word_mpld+1,w
  2463     02D2  3DF5               	addwfc	__Umul8_16@product+1,f
  2464     02D3                     l729:
  2465     02D3  3001               	movlw	1
  2466     02D4                     u1035:
  2467     02D4  35F6               	lslf	__Umul8_16@word_mpld,f
  2468     02D5  0DF7               	rlf	__Umul8_16@word_mpld+1,f
  2469     02D6  0B89               	decfsz	9,f
  2470     02D7  2AD4               	goto	u1035
  2471     02D8  1003               	clrc
  2472     02D9  0CF8               	rrf	__Umul8_16@multiplier,f
  2473     02DA                     l1403:
  2474     02DA  0878               	movf	__Umul8_16@multiplier,w
  2475     02DB  1D03               	btfss	3,2
  2476     02DC  2ADE               	goto	u1041
  2477     02DD  2ADF               	goto	u1040
  2478     02DE                     u1041:
  2479     02DE  2ACB               	goto	l1399
  2480     02DF                     u1040:
  2481     02DF                     l1405:
  2482     02DF  0875               	movf	__Umul8_16@product+1,w
  2483     02E0  00F1               	movwf	?__Umul8_16+1
  2484     02E1  0874               	movf	__Umul8_16@product,w
  2485     02E2  00F0               	movwf	?__Umul8_16
  2486     02E3                     l731:
  2487     02E3  0008               	return
  2488     02E4                     __end_of__Umul8_16:
  2489                           
  2490                           	psect	text5
  2491     023F                     __ptext5:	
  2492 ;; *************** function _WDT_setup *****************
  2493 ;; Defined at:
  2494 ;;		line 142 in file "main.c"
  2495 ;; Parameters:    Size  Location     Type
  2496 ;;		None
  2497 ;; Auto vars:     Size  Location     Type
  2498 ;;		None
  2499 ;; Return value:  Size  Location     Type
  2500 ;;                  1    wreg      void 
  2501 ;; Registers used:
  2502 ;;		wreg, status,2, status,0
  2503 ;; Tracked objects:
  2504 ;;		On entry : 0/0
  2505 ;;		On exit  : 0/0
  2506 ;;		Unchanged: 0/0
  2507 ;; Data sizes:     COMMON   BANK0   BANK1   BANK2   BANK3   BANK4   BANK5   BANK6   BANK7   BANK8   BANK9  BANK10  BANK1
      +1  BANK12
  2508 ;;      Params:         0       0       0       0       0       0       0       0       0       0       0       0       
      +0       0
  2509 ;;      Locals:         0       0       0       0       0       0       0       0       0       0       0       0       
      +0       0
  2510 ;;      Temps:          0       0       0       0       0       0       0       0       0       0       0       0       
      +0       0
  2511 ;;      Totals:         0       0       0       0       0       0       0       0       0       0       0       0       
      +0       0
  2512 ;;Total ram usage:        0 bytes
  2513 ;; Hardware stack levels used: 1
  2514 ;; This function calls:
  2515 ;;		Nothing
  2516 ;; This function is called by:
  2517 ;;		_main
  2518 ;; This function uses a non-reentrant model
  2519 ;;
  2520                           
  2521     023F                     _WDT_setup:	
  2522                           ;psect for function _WDT_setup
  2523                           
  2524     023F                     l1447:	
  2525                           ;incstack = 0
  2526                           ; Regs used in _WDT_setup: [wreg+status,2+status,0]
  2527                           
  2528                           
  2529                           ;main.c: 145:     WDTCONbits.PS = 0b10000;
  2530     023F  0143               	movlb	3	; select bank3
  2531     0240  080C               	movf	12,w	;volatile
  2532     0241  39C1               	andlw	-63
  2533     0242  3820               	iorlw	32
  2534     0243  008C               	movwf	12	;volatile
  2535     0244                     l87:
  2536     0244  0008               	return
  2537     0245                     __end_of_WDT_setup:
  2538                           
  2539                           	psect	text6
  2540     02A6                     __ptext6:	
  2541 ;; *************** function _I2C_setup *****************
  2542 ;; Defined at:
  2543 ;;		line 155 in file "main.c"
  2544 ;; Parameters:    Size  Location     Type
  2545 ;;		None
  2546 ;; Auto vars:     Size  Location     Type
  2547 ;;  i2c_freq        1    0        unsigned char 
  2548 ;; Return value:  Size  Location     Type
  2549 ;;                  1    wreg      void 
  2550 ;; Registers used:
  2551 ;;		wreg, status,2, status,0
  2552 ;; Tracked objects:
  2553 ;;		On entry : 0/0
  2554 ;;		On exit  : 0/0
  2555 ;;		Unchanged: 0/0
  2556 ;; Data sizes:     COMMON   BANK0   BANK1   BANK2   BANK3   BANK4   BANK5   BANK6   BANK7   BANK8   BANK9  BANK10  BANK1
      +1  BANK12
  2557 ;;      Params:         0       0       0       0       0       0       0       0       0       0       0       0       
      +0       0
  2558 ;;      Locals:         0       0       0       0       0       0       0       0       0       0       0       0       
      +0       0
  2559 ;;      Temps:          0       0       0       0       0       0       0       0       0       0       0       0       
      +0       0
  2560 ;;      Totals:         0       0       0       0       0       0       0       0       0       0       0       0       
      +0       0
  2561 ;;Total ram usage:        0 bytes
  2562 ;; Hardware stack levels used: 1
  2563 ;; This function calls:
  2564 ;;		Nothing
  2565 ;; This function is called by:
  2566 ;;		_main
  2567 ;; This function uses a non-reentrant model
  2568 ;;
  2569                           
  2570     02A6                     _I2C_setup:	
  2571                           ;psect for function _I2C_setup
  2572                           
  2573     02A6                     l1409:	
  2574                           ;incstack = 0
  2575                           ; Regs used in _I2C_setup: [wreg+status,2+status,0]
  2576                           
  2577     02A6                     l1411:
  2578                           
  2579                           ;main.c: 160:     TRISAbits.TRISA1 = 1;
  2580     02A6  0140               	movlb	0	; select bank0
  2581     02A7  1492               	bsf	18,1	;volatile
  2582     02A8                     l1413:
  2583                           
  2584                           ;main.c: 161:     TRISAbits.TRISA2 = 1;
  2585     02A8  1512               	bsf	18,2	;volatile
  2586     02A9                     l1415:
  2587                           
  2588                           ;main.c: 162:     ODCONAbits.ODCA1 = 1;
  2589     02A9  017D               	movlb	61	; select bank61
  2590     02AA  148E               	bsf	14,1	;volatile
  2591     02AB                     l1417:
  2592                           
  2593                           ;main.c: 163:     ODCONAbits.ODCA2 = 1;
  2594     02AB  150E               	bsf	14,2	;volatile
  2595                           
  2596                           ;main.c: 164:     RA1PPS = 0x15;
  2597     02AC  3015               	movlw	21
  2598     02AD  017B               	movlb	59	; select bank59
  2599     02AE  008D               	movwf	13	;volatile
  2600                           
  2601                           ;main.c: 165:     RA2PPS = 0x16;
  2602     02AF  3016               	movlw	22
  2603     02B0  008E               	movwf	14	;volatile
  2604                           
  2605                           ;main.c: 166:     SSP1CLKPPS = 0x1;
  2606     02B1  3001               	movlw	1
  2607     02B2  017C               	movlb	60	; select bank60
  2608     02B3  00C7               	movwf	71	;volatile
  2609                           
  2610                           ;main.c: 167:     SSP1DATPPS = 0x2;
  2611     02B4  3002               	movlw	2
  2612     02B5  00C8               	movwf	72	;volatile
  2613     02B6                     l1419:
  2614                           
  2615                           ;main.c: 169:     SSP1STATbits.SMP = 1;
  2616     02B6  014D               	movlb	13	; select bank13
  2617     02B7  178F               	bsf	15,7	;volatile
  2618     02B8                     l1421:
  2619                           
  2620                           ;main.c: 171:     SSP1CON1bits.SSPM = 0b1000;
  2621     02B8  0810               	movf	16,w	;volatile
  2622     02B9  39F0               	andlw	-16
  2623     02BA  3808               	iorlw	8
  2624     02BB  0090               	movwf	16	;volatile
  2625     02BC                     l1423:
  2626                           
  2627                           ;main.c: 173:     SSP1CON2 = 0;
  2628     02BC  0191               	clrf	17	;volatile
  2629     02BD                     l1425:
  2630                           
  2631                           ;main.c: 175:     SSP1ADD = 3;
  2632     02BD  3003               	movlw	3
  2633     02BE  008D               	movwf	13	;volatile
  2634     02BF                     l1427:
  2635                           
  2636                           ;main.c: 177:     SSP1CON1bits.SSPEN = 1;
  2637     02BF  1690               	bsf	16,5	;volatile
  2638     02C0                     l93:
  2639     02C0  0008               	return
  2640     02C1                     __end_of_I2C_setup:
  2641                           
  2642                           	psect	text7
  2643     024D                     __ptext7:	
  2644 ;; *************** function _I2C_MCP23008_read *****************
  2645 ;; Defined at:
  2646 ;;		line 266 in file "main.c"
  2647 ;; Parameters:    Size  Location     Type
  2648 ;;		None
  2649 ;; Auto vars:     Size  Location     Type
  2650 ;;  rx_data        11    0[BANK0 ] unsigned char [11]
  2651 ;; Return value:  Size  Location     Type
  2652 ;;                  1    wreg      void 
  2653 ;; Registers used:
  2654 ;;		wreg, fsr1l, fsr1h, status,2, status,0, pclath, cstack
  2655 ;; Tracked objects:
  2656 ;;		On entry : 0/0
  2657 ;;		On exit  : 0/0
  2658 ;;		Unchanged: 0/0
  2659 ;; Data sizes:     COMMON   BANK0   BANK1   BANK2   BANK3   BANK4   BANK5   BANK6   BANK7   BANK8   BANK9  BANK10  BANK1
      +1  BANK12
  2660 ;;      Params:         0       0       0       0       0       0       0       0       0       0       0       0       
      +0       0
  2661 ;;      Locals:         0      11       0       0       0       0       0       0       0       0       0       0       
      +0       0
  2662 ;;      Temps:          0       0       0       0       0       0       0       0       0       0       0       0       
      +0       0
  2663 ;;      Totals:         0      11       0       0       0       0       0       0       0       0       0       0       
      +0       0
  2664 ;;Total ram usage:       11 bytes
  2665 ;; Hardware stack levels used: 1
  2666 ;; Hardware stack levels required when called: 3
  2667 ;; This function calls:
  2668 ;;		_I2C_read_query
  2669 ;; This function is called by:
  2670 ;;		_main
  2671 ;; This function uses a non-reentrant model
  2672 ;;
  2673                           
  2674     024D                     _I2C_MCP23008_read:	
  2675                           ;psect for function _I2C_MCP23008_read
  2676                           
  2677     024D                     l1465:	
  2678                           ;incstack = 0
  2679                           ; Regs used in _I2C_MCP23008_read: [wreg+fsr1l+fsr1h+status,2+status,0+pclath+cstack]
  2680                           
  2681                           
  2682                           ;main.c: 267:     uint8_t rx_data[11];;main.c: 270:     I2C_read_query(0x27, rx_data, 11
      +                          );
  2683     024D  3020               	movlw	(low (I2C_MCP23008_read@rx_data| 0))& (0+255)
  2684     024E  00F1               	movwf	I2C_read_query@data
  2685     024F  300B               	movlw	11
  2686     0250  00F2               	movwf	I2C_read_query@number_of_bytes
  2687     0251  3027               	movlw	39
  2688     0252  3183  230A  3182   	fcall	_I2C_read_query
  2689     0255                     l134:
  2690     0255  0008               	return
  2691     0256                     __end_of_I2C_MCP23008_read:
  2692                           
  2693                           	psect	text8
  2694     030A                     __ptext8:	
  2695 ;; *************** function _I2C_read_query *****************
  2696 ;; Defined at:
  2697 ;;		line 231 in file "main.c"
  2698 ;; Parameters:    Size  Location     Type
  2699 ;;  address         1    wreg     unsigned char 
  2700 ;;  data            1    1[COMMON] PTR unsigned char 
  2701 ;;		 -> I2C_MCP23008_read@rx_data(11), I2C_SHT4x_read@rx_data(6), 
  2702 ;;  number_of_by    1    2[COMMON] unsigned char 
  2703 ;; Auto vars:     Size  Location     Type
  2704 ;;  address         1    6[COMMON] unsigned char 
  2705 ;;  i               2    4[COMMON] int 
  2706 ;; Return value:  Size  Location     Type
  2707 ;;                  1    wreg      unsigned char 
  2708 ;; Registers used:
  2709 ;;		wreg, fsr1l, fsr1h, status,2, status,0, pclath, cstack
  2710 ;; Tracked objects:
  2711 ;;		On entry : 0/0
  2712 ;;		On exit  : 0/0
  2713 ;;		Unchanged: 0/0
  2714 ;; Data sizes:     COMMON   BANK0   BANK1   BANK2   BANK3   BANK4   BANK5   BANK6   BANK7   BANK8   BANK9  BANK10  BANK1
      +1  BANK12
  2715 ;;      Params:         2       0       0       0       0       0       0       0       0       0       0       0       
      +0       0
  2716 ;;      Locals:         3       0       0       0       0       0       0       0       0       0       0       0       
      +0       0
  2717 ;;      Temps:          1       0       0       0       0       0       0       0       0       0       0       0       
      +0       0
  2718 ;;      Totals:         6       0       0       0       0       0       0       0       0       0       0       0       
      +0       0
  2719 ;;Total ram usage:        6 bytes
  2720 ;; Hardware stack levels used: 1
  2721 ;; Hardware stack levels required when called: 2
  2722 ;; This function calls:
  2723 ;;		_I2C_read
  2724 ;;		_I2C_start
  2725 ;;		_I2C_stop
  2726 ;;		_I2C_write
  2727 ;; This function is called by:
  2728 ;;		_I2C_MCP23008_read
  2729 ;;		_I2C_SHT4x_read
  2730 ;; This function uses a non-reentrant model
  2731 ;;
  2732                           
  2733     030A                     _I2C_read_query:	
  2734                           ;psect for function _I2C_read_query
  2735                           
  2736                           
  2737                           ;incstack = 0
  2738                           ; Regs used in _I2C_read_query: [wreg+fsr1l+fsr1h+status,2+status,0+pclath+cstack]
  2739                           ;I2C_read_query@address stored from wreg
  2740     030A  00F6               	movwf	I2C_read_query@address
  2741     030B                     l1291:
  2742                           
  2743                           ;main.c: 232:     I2C_start();
  2744     030B  3182  2233  3183   	fcall	_I2C_start
  2745     030E                     l1293:
  2746                           
  2747                           ;main.c: 233:     address = (address << 1)&0b11111110;
  2748     030E  3576               	lslf	I2C_read_query@address,w
  2749     030F  39FE               	andlw	254
  2750     0310  00F6               	movwf	I2C_read_query@address
  2751     0311                     l1295:
  2752                           
  2753                           ;main.c: 234:     I2C_write(address | 0b00000001);
  2754     0311  0876               	movf	I2C_read_query@address,w
  2755     0312  3801               	iorlw	1
  2756     0313  3182  2245  3183   	fcall	_I2C_write
  2757     0316                     l1297:
  2758                           
  2759                           ;main.c: 235:     for(int i=0; i<number_of_bytes; i++){
  2760     0316  01F4               	clrf	I2C_read_query@i
  2761     0317  01F5               	clrf	I2C_read_query@i+1
  2762     0318  2B27               	goto	l1303
  2763     0319                     l1299:
  2764                           
  2765                           ;main.c: 236:         data[i] = I2C_read();
  2766     0319  0874               	movf	I2C_read_query@i,w
  2767     031A  0771               	addwf	I2C_read_query@data,w
  2768     031B  00F3               	movwf	??_I2C_read_query
  2769     031C  0873               	movf	??_I2C_read_query,w
  2770     031D  0086               	movwf	6
  2771     031E  0187               	clrf	7
  2772     031F  3182  2293  3183   	fcall	_I2C_read
  2773     0322  0081               	movwf	1
  2774     0323                     l1301:
  2775                           
  2776                           ;main.c: 237:     }
  2777     0323  3001               	movlw	1
  2778     0324  07F4               	addwf	I2C_read_query@i,f
  2779     0325  3000               	movlw	0
  2780     0326  3DF5               	addwfc	I2C_read_query@i+1,f
  2781     0327                     l1303:
  2782     0327  0875               	movf	I2C_read_query@i+1,w
  2783     0328  3A80               	xorlw	128
  2784     0329  00F3               	movwf	??_I2C_read_query
  2785     032A  3080               	movlw	128
  2786     032B  0273               	subwf	??_I2C_read_query,w
  2787     032C  1D03               	skipz
  2788     032D  2B30               	goto	u815
  2789     032E  0872               	movf	I2C_read_query@number_of_bytes,w
  2790     032F  0274               	subwf	I2C_read_query@i,w
  2791     0330                     u815:
  2792     0330  1C03               	skipc
  2793     0331  2B33               	goto	u811
  2794     0332  2B34               	goto	u810
  2795     0333                     u811:
  2796     0333  2B19               	goto	l1299
  2797     0334                     u810:
  2798     0334                     l1305:
  2799                           
  2800                           ;main.c: 238:     I2C_stop();
  2801     0334  3182  2239  3183   	fcall	_I2C_stop
  2802     0337                     l123:
  2803     0337  0008               	return
  2804     0338                     __end_of_I2C_read_query:
  2805                           
  2806                           	psect	text9
  2807     0245                     __ptext9:	
  2808 ;; *************** function _I2C_write *****************
  2809 ;; Defined at:
  2810 ;;		line 200 in file "main.c"
  2811 ;; Parameters:    Size  Location     Type
  2812 ;;  data            1    wreg     unsigned char 
  2813 ;; Auto vars:     Size  Location     Type
  2814 ;;  data            1    0[COMMON] unsigned char 
  2815 ;; Return value:  Size  Location     Type
  2816 ;;                  1    wreg      void 
  2817 ;; Registers used:
  2818 ;;		wreg, status,2, status,0, pclath, cstack
  2819 ;; Tracked objects:
  2820 ;;		On entry : 0/0
  2821 ;;		On exit  : 0/0
  2822 ;;		Unchanged: 0/0
  2823 ;; Data sizes:     COMMON   BANK0   BANK1   BANK2   BANK3   BANK4   BANK5   BANK6   BANK7   BANK8   BANK9  BANK10  BANK1
      +1  BANK12
  2824 ;;      Params:         0       0       0       0       0       0       0       0       0       0       0       0       
      +0       0
  2825 ;;      Locals:         1       0       0       0       0       0       0       0       0       0       0       0       
      +0       0
  2826 ;;      Temps:          0       0       0       0       0       0       0       0       0       0       0       0       
      +0       0
  2827 ;;      Totals:         1       0       0       0       0       0       0       0       0       0       0       0       
      +0       0
  2828 ;;Total ram usage:        1 bytes
  2829 ;; Hardware stack levels used: 1
  2830 ;; Hardware stack levels required when called: 1
  2831 ;; This function calls:
  2832 ;;		_I2C_wait
  2833 ;; This function is called by:
  2834 ;;		_I2C_read_query
  2835 ;;		_I2C_write_query
  2836 ;; This function uses a non-reentrant model
  2837 ;;
  2838                           
  2839     0245                     _I2C_write:	
  2840                           ;psect for function _I2C_write
  2841                           
  2842                           
  2843                           ;incstack = 0
  2844                           ; Regs used in _I2C_write: [wreg+status,2+status,0+pclath+cstack]
  2845                           ;I2C_write@data stored from wreg
  2846     0245  00F0               	movwf	I2C_write@data
  2847     0246                     l1273:
  2848                           
  2849                           ;main.c: 201:   I2C_wait();
  2850     0246  3182  226C  3182   	fcall	_I2C_wait
  2851     0249                     l1275:
  2852                           
  2853                           ;main.c: 202:   SSP1BUF = data;
  2854     0249  0870               	movf	I2C_write@data,w
  2855     024A  014D               	movlb	13	; select bank13
  2856     024B  008C               	movwf	12	;volatile
  2857     024C                     l111:
  2858     024C  0008               	return
  2859     024D                     __end_of_I2C_write:
  2860                           
  2861                           	psect	text10
  2862     0239                     __ptext10:	
  2863 ;; *************** function _I2C_stop *****************
  2864 ;; Defined at:
  2865 ;;		line 195 in file "main.c"
  2866 ;; Parameters:    Size  Location     Type
  2867 ;;		None
  2868 ;; Auto vars:     Size  Location     Type
  2869 ;;		None
  2870 ;; Return value:  Size  Location     Type
  2871 ;;                  1    wreg      void 
  2872 ;; Registers used:
  2873 ;;		wreg, status,2, status,0, pclath, cstack
  2874 ;; Tracked objects:
  2875 ;;		On entry : 0/0
  2876 ;;		On exit  : 0/0
  2877 ;;		Unchanged: 0/0
  2878 ;; Data sizes:     COMMON   BANK0   BANK1   BANK2   BANK3   BANK4   BANK5   BANK6   BANK7   BANK8   BANK9  BANK10  BANK1
      +1  BANK12
  2879 ;;      Params:         0       0       0       0       0       0       0       0       0       0       0       0       
      +0       0
  2880 ;;      Locals:         0       0       0       0       0       0       0       0       0       0       0       0       
      +0       0
  2881 ;;      Temps:          0       0       0       0       0       0       0       0       0       0       0       0       
      +0       0
  2882 ;;      Totals:         0       0       0       0       0       0       0       0       0       0       0       0       
      +0       0
  2883 ;;Total ram usage:        0 bytes
  2884 ;; Hardware stack levels used: 1
  2885 ;; Hardware stack levels required when called: 1
  2886 ;; This function calls:
  2887 ;;		_I2C_wait
  2888 ;; This function is called by:
  2889 ;;		_I2C_read_query
  2890 ;;		_I2C_write_query
  2891 ;; This function uses a non-reentrant model
  2892 ;;
  2893                           
  2894     0239                     _I2C_stop:	
  2895                           ;psect for function _I2C_stop
  2896                           
  2897     0239                     l1269:	
  2898                           ;incstack = 0
  2899                           ; Regs used in _I2C_stop: [wreg+status,2+status,0+pclath+cstack]
  2900                           
  2901                           
  2902                           ;main.c: 196:   I2C_wait();
  2903     0239  3182  226C  3182   	fcall	_I2C_wait
  2904     023C                     l1271:
  2905                           
  2906                           ;main.c: 197:   SSP1CON2bits.PEN = 1;
  2907     023C  014D               	movlb	13	; select bank13
  2908     023D  1511               	bsf	17,2	;volatile
  2909     023E                     l108:
  2910     023E  0008               	return
  2911     023F                     __end_of_I2C_stop:
  2912                           
  2913                           	psect	text11
  2914     0233                     __ptext11:	
  2915 ;; *************** function _I2C_start *****************
  2916 ;; Defined at:
  2917 ;;		line 185 in file "main.c"
  2918 ;; Parameters:    Size  Location     Type
  2919 ;;		None
  2920 ;; Auto vars:     Size  Location     Type
  2921 ;;		None
  2922 ;; Return value:  Size  Location     Type
  2923 ;;                  1    wreg      void 
  2924 ;; Registers used:
  2925 ;;		wreg, status,2, status,0, pclath, cstack
  2926 ;; Tracked objects:
  2927 ;;		On entry : 0/0
  2928 ;;		On exit  : 0/0
  2929 ;;		Unchanged: 0/0
  2930 ;; Data sizes:     COMMON   BANK0   BANK1   BANK2   BANK3   BANK4   BANK5   BANK6   BANK7   BANK8   BANK9  BANK10  BANK1
      +1  BANK12
  2931 ;;      Params:         0       0       0       0       0       0       0       0       0       0       0       0       
      +0       0
  2932 ;;      Locals:         0       0       0       0       0       0       0       0       0       0       0       0       
      +0       0
  2933 ;;      Temps:          0       0       0       0       0       0       0       0       0       0       0       0       
      +0       0
  2934 ;;      Totals:         0       0       0       0       0       0       0       0       0       0       0       0       
      +0       0
  2935 ;;Total ram usage:        0 bytes
  2936 ;; Hardware stack levels used: 1
  2937 ;; Hardware stack levels required when called: 1
  2938 ;; This function calls:
  2939 ;;		_I2C_wait
  2940 ;; This function is called by:
  2941 ;;		_I2C_read_query
  2942 ;;		_I2C_write_query
  2943 ;; This function uses a non-reentrant model
  2944 ;;
  2945                           
  2946     0233                     _I2C_start:	
  2947                           ;psect for function _I2C_start
  2948                           
  2949     0233                     l1265:	
  2950                           ;incstack = 0
  2951                           ; Regs used in _I2C_start: [wreg+status,2+status,0+pclath+cstack]
  2952                           
  2953                           
  2954                           ;main.c: 186:   I2C_wait();
  2955     0233  3182  226C  3182   	fcall	_I2C_wait
  2956     0236                     l1267:
  2957                           
  2958                           ;main.c: 187:   SSP1CON2bits.SEN = 1;
  2959     0236  014D               	movlb	13	; select bank13
  2960     0237  1411               	bsf	17,0	;volatile
  2961     0238                     l102:
  2962     0238  0008               	return
  2963     0239                     __end_of_I2C_start:
  2964                           
  2965                           	psect	text12
  2966     0293                     __ptext12:	
  2967 ;; *************** function _I2C_read *****************
  2968 ;; Defined at:
  2969 ;;		line 205 in file "main.c"
  2970 ;; Parameters:    Size  Location     Type
  2971 ;;		None
  2972 ;; Auto vars:     Size  Location     Type
  2973 ;;  tmp             1    0[COMMON] unsigned char 
  2974 ;; Return value:  Size  Location     Type
  2975 ;;                  1    wreg      unsigned char 
  2976 ;; Registers used:
  2977 ;;		wreg, status,2, status,0, pclath, cstack
  2978 ;; Tracked objects:
  2979 ;;		On entry : 0/0
  2980 ;;		On exit  : 0/0
  2981 ;;		Unchanged: 0/0
  2982 ;; Data sizes:     COMMON   BANK0   BANK1   BANK2   BANK3   BANK4   BANK5   BANK6   BANK7   BANK8   BANK9  BANK10  BANK1
      +1  BANK12
  2983 ;;      Params:         0       0       0       0       0       0       0       0       0       0       0       0       
      +0       0
  2984 ;;      Locals:         1       0       0       0       0       0       0       0       0       0       0       0       
      +0       0
  2985 ;;      Temps:          0       0       0       0       0       0       0       0       0       0       0       0       
      +0       0
  2986 ;;      Totals:         1       0       0       0       0       0       0       0       0       0       0       0       
      +0       0
  2987 ;;Total ram usage:        1 bytes
  2988 ;; Hardware stack levels used: 1
  2989 ;; Hardware stack levels required when called: 1
  2990 ;; This function calls:
  2991 ;;		_I2C_wait
  2992 ;; This function is called by:
  2993 ;;		_I2C_read_query
  2994 ;; This function uses a non-reentrant model
  2995 ;;
  2996                           
  2997     0293                     _I2C_read:	
  2998                           ;psect for function _I2C_read
  2999                           
  3000     0293                     l1277:	
  3001                           ;incstack = 0
  3002                           ; Regs used in _I2C_read: [wreg+status,2+status,0+pclath+cstack]
  3003                           
  3004                           
  3005                           ;main.c: 207:   uint8_t tmp;;main.c: 208:   I2C_wait();
  3006     0293  3182  226C  3182   	fcall	_I2C_wait
  3007     0296                     l1279:
  3008                           
  3009                           ;main.c: 209:   SSP1CON2bits.RCEN = 1;
  3010     0296  014D               	movlb	13	; select bank13
  3011     0297  1591               	bsf	17,3	;volatile
  3012                           
  3013                           ;main.c: 211:   I2C_wait();
  3014     0298  3182  226C  3182   	fcall	_I2C_wait
  3015     029B                     l1281:
  3016                           
  3017                           ;main.c: 215:   tmp = SSP1BUF;
  3018     029B  014D               	movlb	13	; select bank13
  3019     029C  080C               	movf	12,w	;volatile
  3020     029D  00F0               	movwf	I2C_read@tmp
  3021     029E                     l1283:
  3022                           
  3023                           ;main.c: 216:   I2C_wait();
  3024     029E  3182  226C  3182   	fcall	_I2C_wait
  3025     02A1                     l1285:
  3026                           
  3027                           ;main.c: 217:   SSP1CON2bits.ACKDT = 0;
  3028     02A1  014D               	movlb	13	; select bank13
  3029     02A2  1291               	bcf	17,5	;volatile
  3030     02A3                     l1287:
  3031                           
  3032                           ;main.c: 218:   SSP1CON2bits.ACKEN = 1;
  3033     02A3  1611               	bsf	17,4	;volatile
  3034                           
  3035                           ;main.c: 219:   return tmp;
  3036     02A4  0870               	movf	I2C_read@tmp,w
  3037     02A5                     l114:
  3038     02A5  0008               	return
  3039     02A6                     __end_of_I2C_read:
  3040                           
  3041                           	psect	text13
  3042     026C                     __ptext13:	
  3043 ;; *************** function _I2C_wait *****************
  3044 ;; Defined at:
  3045 ;;		line 181 in file "main.c"
  3046 ;; Parameters:    Size  Location     Type
  3047 ;;		None
  3048 ;; Auto vars:     Size  Location     Type
  3049 ;;		None
  3050 ;; Return value:  Size  Location     Type
  3051 ;;                  1    wreg      void 
  3052 ;; Registers used:
  3053 ;;		wreg, status,2
  3054 ;; Tracked objects:
  3055 ;;		On entry : 0/0
  3056 ;;		On exit  : 0/0
  3057 ;;		Unchanged: 0/0
  3058 ;; Data sizes:     COMMON   BANK0   BANK1   BANK2   BANK3   BANK4   BANK5   BANK6   BANK7   BANK8   BANK9  BANK10  BANK1
      +1  BANK12
  3059 ;;      Params:         0       0       0       0       0       0       0       0       0       0       0       0       
      +0       0
  3060 ;;      Locals:         0       0       0       0       0       0       0       0       0       0       0       0       
      +0       0
  3061 ;;      Temps:          0       0       0       0       0       0       0       0       0       0       0       0       
      +0       0
  3062 ;;      Totals:         0       0       0       0       0       0       0       0       0       0       0       0       
      +0       0
  3063 ;;Total ram usage:        0 bytes
  3064 ;; Hardware stack levels used: 1
  3065 ;; This function calls:
  3066 ;;		Nothing
  3067 ;; This function is called by:
  3068 ;;		_I2C_start
  3069 ;;		_I2C_stop
  3070 ;;		_I2C_write
  3071 ;;		_I2C_read
  3072 ;;		_I2C_RepeatedStart
  3073 ;; This function uses a non-reentrant model
  3074 ;;
  3075                           
  3076     026C                     _I2C_wait:	
  3077                           ;psect for function _I2C_wait
  3078                           
  3079     026C                     l1261:	
  3080                           ;incstack = 0
  3081                           ; Regs used in _I2C_wait: [wreg+status,2]
  3082                           
  3083     026C                     l96:	
  3084                           ;main.c: 182:    while ((SSP1STAT & 0b00000100) || (SSP1CON2 & 0x00011111));
  3085                           
  3086     026C  014D               	movlb	13	; select bank13
  3087     026D  190F               	btfsc	15,2	;volatile
  3088     026E  2A70               	goto	u791
  3089     026F  2A71               	goto	u790
  3090     0270                     u791:
  3091     0270  2A6C               	goto	l96
  3092     0271                     u790:
  3093     0271                     l1263:
  3094     0271  0811               	movf	17,w	;volatile
  3095     0272  3911               	andlw	17
  3096     0273  1D03               	btfss	3,2
  3097     0274  2A76               	goto	u801
  3098     0275  2A77               	goto	u800
  3099     0276                     u801:
  3100     0276  2A6C               	goto	l96
  3101     0277                     u800:
  3102     0277                     l99:
  3103     0277  0008               	return
  3104     0278                     __end_of_I2C_wait:
  3105                           
  3106                           	psect	text14
  3107     0285                     __ptext14:	
  3108 ;; *************** function _EUSART_setup *****************
  3109 ;; Defined at:
  3110 ;;		line 273 in file "main.c"
  3111 ;; Parameters:    Size  Location     Type
  3112 ;;		None
  3113 ;; Auto vars:     Size  Location     Type
  3114 ;;		None
  3115 ;; Return value:  Size  Location     Type
  3116 ;;                  1    wreg      void 
  3117 ;; Registers used:
  3118 ;;		wreg, status,2
  3119 ;; Tracked objects:
  3120 ;;		On entry : 0/0
  3121 ;;		On exit  : 0/0
  3122 ;;		Unchanged: 0/0
  3123 ;; Data sizes:     COMMON   BANK0   BANK1   BANK2   BANK3   BANK4   BANK5   BANK6   BANK7   BANK8   BANK9  BANK10  BANK1
      +1  BANK12
  3124 ;;      Params:         0       0       0       0       0       0       0       0       0       0       0       0       
      +0       0
  3125 ;;      Locals:         0       0       0       0       0       0       0       0       0       0       0       0       
      +0       0
  3126 ;;      Temps:          0       0       0       0       0       0       0       0       0       0       0       0       
      +0       0
  3127 ;;      Totals:         0       0       0       0       0       0       0       0       0       0       0       0       
      +0       0
  3128 ;;Total ram usage:        0 bytes
  3129 ;; Hardware stack levels used: 1
  3130 ;; This function calls:
  3131 ;;		Nothing
  3132 ;; This function is called by:
  3133 ;;		_main
  3134 ;; This function uses a non-reentrant model
  3135 ;;
  3136                           
  3137     0285                     _EUSART_setup:	
  3138                           ;psect for function _EUSART_setup
  3139                           
  3140     0285                     l1429:	
  3141                           ;incstack = 0
  3142                           ; Regs used in _EUSART_setup: [wreg+status,2]
  3143                           
  3144                           
  3145                           ;main.c: 275:     TX2STAbits.TXEN = 1;
  3146     0285  014C               	movlb	12	; select bank12
  3147     0286  169B               	bsf	27,5	;volatile
  3148                           
  3149                           ;main.c: 277:     TX2STAbits.BRGH = 1;
  3150     0287  151B               	bsf	27,2	;volatile
  3151                           
  3152                           ;main.c: 279:     BAUD2CONbits.BRG16 = 1;
  3153     0288  159C               	bsf	28,3	;volatile
  3154                           
  3155                           ;main.c: 281:     RC2STAbits.SPEN = 1;
  3156     0289  179A               	bsf	26,7	;volatile
  3157     028A                     l1431:
  3158                           
  3159                           ;main.c: 283:     SP2BRGL = 25;
  3160     028A  3019               	movlw	25
  3161     028B  0098               	movwf	24	;volatile
  3162     028C                     l1433:
  3163                           
  3164                           ;main.c: 284:     SP2BRGH = 0;
  3165     028C  0199               	clrf	25	;volatile
  3166     028D                     l1435:
  3167                           
  3168                           ;main.c: 286:     RA5PPS = 0x11;
  3169     028D  3011               	movlw	17
  3170     028E  017B               	movlb	59	; select bank59
  3171     028F  0091               	movwf	17	;volatile
  3172     0290                     l1437:
  3173                           
  3174                           ;main.c: 288:     TRISAbits.TRISA5 = 0;
  3175     0290  0140               	movlb	0	; select bank0
  3176     0291  1292               	bcf	18,5	;volatile
  3177     0292                     l137:
  3178     0292  0008               	return
  3179     0293                     __end_of_EUSART_setup:
  3180                           
  3181                           	psect	text15
  3182     0338                     __ptext15:	
  3183 ;; *************** function _EUSART_print_num *****************
  3184 ;; Defined at:
  3185 ;;		line 304 in file "main.c"
  3186 ;; Parameters:    Size  Location     Type
  3187 ;;  number          1    wreg     unsigned char 
  3188 ;; Auto vars:     Size  Location     Type
  3189 ;;  number          1    7[BANK0 ] unsigned char 
  3190 ;;  u               1    6[BANK0 ] unsigned char 
  3191 ;;  d               1    5[BANK0 ] unsigned char 
  3192 ;;  c               1    4[BANK0 ] unsigned char 
  3193 ;; Return value:  Size  Location     Type
  3194 ;;                  1    wreg      void 
  3195 ;; Registers used:
  3196 ;;		wreg, status,2, status,0, pclath, cstack
  3197 ;; Tracked objects:
  3198 ;;		On entry : 0/0
  3199 ;;		On exit  : 0/0
  3200 ;;		Unchanged: 0/0
  3201 ;; Data sizes:     COMMON   BANK0   BANK1   BANK2   BANK3   BANK4   BANK5   BANK6   BANK7   BANK8   BANK9  BANK10  BANK1
      +1  BANK12
  3202 ;;      Params:         0       0       0       0       0       0       0       0       0       0       0       0       
      +0       0
  3203 ;;      Locals:         0       4       0       0       0       0       0       0       0       0       0       0       
      +0       0
  3204 ;;      Temps:          0       2       0       0       0       0       0       0       0       0       0       0       
      +0       0
  3205 ;;      Totals:         0       6       0       0       0       0       0       0       0       0       0       0       
      +0       0
  3206 ;;Total ram usage:        6 bytes
  3207 ;; Hardware stack levels used: 1
  3208 ;; Hardware stack levels required when called: 1
  3209 ;; This function calls:
  3210 ;;		_EUSART_write
  3211 ;;		___awdiv
  3212 ;;		___awmod
  3213 ;; This function is called by:
  3214 ;;		_main
  3215 ;; This function uses a non-reentrant model
  3216 ;;
  3217                           
  3218     0338                     _EUSART_print_num:	
  3219                           ;psect for function _EUSART_print_num
  3220                           
  3221                           
  3222                           ;incstack = 0
  3223                           ; Regs used in _EUSART_print_num: [wreg+status,2+status,0+pclath+cstack]
  3224                           ;EUSART_print_num@number stored from wreg
  3225     0338  0140               	movlb	0	; select bank0
  3226     0339  00A7               	movwf	EUSART_print_num@number
  3227     033A                     l1463:
  3228                           
  3229                           ;main.c: 305:     uint8_t c = (number/100);
  3230     033A  3064               	movlw	100
  3231     033B  00F0               	movwf	___awdiv@divisor
  3232     033C  3000               	movlw	0
  3233     033D  00F1               	movwf	___awdiv@divisor+1
  3234     033E  0827               	movf	EUSART_print_num@number,w
  3235     033F  00A2               	movwf	??_EUSART_print_num
  3236     0340  01A3               	clrf	??_EUSART_print_num+1
  3237     0341  0822               	movf	??_EUSART_print_num,w
  3238     0342  00F2               	movwf	___awdiv@dividend
  3239     0343  0823               	movf	??_EUSART_print_num+1,w
  3240     0344  00F3               	movwf	___awdiv@dividend+1
  3241     0345  3183  23DE  3183   	fcall	___awdiv
  3242     0348  0870               	movf	?___awdiv,w
  3243     0349  0140               	movlb	0	; select bank0
  3244     034A  00A4               	movwf	EUSART_print_num@c
  3245                           
  3246                           ;main.c: 306:     uint8_t d = (number/10)%10;
  3247     034B  300A               	movlw	10
  3248     034C  00F9               	movwf	___awmod@divisor
  3249     034D  3000               	movlw	0
  3250     034E  00FA               	movwf	___awmod@divisor+1
  3251     034F  300A               	movlw	10
  3252     0350  00F0               	movwf	___awdiv@divisor
  3253     0351  3000               	movlw	0
  3254     0352  00F1               	movwf	___awdiv@divisor+1
  3255     0353  0827               	movf	EUSART_print_num@number,w
  3256     0354  00A2               	movwf	??_EUSART_print_num
  3257     0355  01A3               	clrf	??_EUSART_print_num+1
  3258     0356  0822               	movf	??_EUSART_print_num,w
  3259     0357  00F2               	movwf	___awdiv@dividend
  3260     0358  0823               	movf	??_EUSART_print_num+1,w
  3261     0359  00F3               	movwf	___awdiv@dividend+1
  3262     035A  3183  23DE  3183   	fcall	___awdiv
  3263     035D  0871               	movf	?___awdiv+1,w
  3264     035E  00FC               	movwf	___awmod@dividend+1
  3265     035F  0870               	movf	?___awdiv,w
  3266     0360  00FB               	movwf	___awmod@dividend
  3267     0361  3183  238A  3183   	fcall	___awmod
  3268     0364  0879               	movf	?___awmod,w
  3269     0365  0140               	movlb	0	; select bank0
  3270     0366  00A5               	movwf	EUSART_print_num@d
  3271                           
  3272                           ;main.c: 307:     uint8_t u = (number)%10;
  3273     0367  300A               	movlw	10
  3274     0368  00F9               	movwf	___awmod@divisor
  3275     0369  3000               	movlw	0
  3276     036A  00FA               	movwf	___awmod@divisor+1
  3277     036B  0827               	movf	EUSART_print_num@number,w
  3278     036C  00A2               	movwf	??_EUSART_print_num
  3279     036D  01A3               	clrf	??_EUSART_print_num+1
  3280     036E  0822               	movf	??_EUSART_print_num,w
  3281     036F  00FB               	movwf	___awmod@dividend
  3282     0370  0823               	movf	??_EUSART_print_num+1,w
  3283     0371  00FC               	movwf	___awmod@dividend+1
  3284     0372  3183  238A  3183   	fcall	___awmod
  3285     0375  0879               	movf	?___awmod,w
  3286     0376  0140               	movlb	0	; select bank0
  3287     0377  00A6               	movwf	EUSART_print_num@u
  3288                           
  3289                           ;main.c: 308:     EUSART_write(c+48);
  3290     0378  0824               	movf	EUSART_print_num@c,w
  3291     0379  3E30               	addlw	48
  3292     037A  3182  2256  3183   	fcall	_EUSART_write
  3293                           
  3294                           ;main.c: 309:     EUSART_write(d+48);
  3295     037D  0140               	movlb	0	; select bank0
  3296     037E  0825               	movf	EUSART_print_num@d,w
  3297     037F  3E30               	addlw	48
  3298     0380  3182  2256  3183   	fcall	_EUSART_write
  3299                           
  3300                           ;main.c: 310:     EUSART_write(u+48);
  3301     0383  0140               	movlb	0	; select bank0
  3302     0384  0826               	movf	EUSART_print_num@u,w
  3303     0385  3E30               	addlw	48
  3304     0386  3182  2256  3183   	fcall	_EUSART_write
  3305     0389                     l152:
  3306     0389  0008               	return
  3307     038A                     __end_of_EUSART_print_num:
  3308                           
  3309                           	psect	text16
  3310     038A                     __ptext16:	
  3311 ;; *************** function ___awmod *****************
  3312 ;; Defined at:
  3313 ;;		line 5 in file "C:\Program Files\Microchip\xc8\v2.40\pic\sources\c99\common\awmod.c"
  3314 ;; Parameters:    Size  Location     Type
  3315 ;;  divisor         2    9[COMMON] int 
  3316 ;;  dividend        2   11[COMMON] int 
  3317 ;; Auto vars:     Size  Location     Type
  3318 ;;  sign            1    1[BANK0 ] unsigned char 
  3319 ;;  counter         1    0[BANK0 ] unsigned char 
  3320 ;; Return value:  Size  Location     Type
  3321 ;;                  2    9[COMMON] int 
  3322 ;; Registers used:
  3323 ;;		wreg, status,2, status,0
  3324 ;; Tracked objects:
  3325 ;;		On entry : 0/0
  3326 ;;		On exit  : 0/0
  3327 ;;		Unchanged: 0/0
  3328 ;; Data sizes:     COMMON   BANK0   BANK1   BANK2   BANK3   BANK4   BANK5   BANK6   BANK7   BANK8   BANK9  BANK10  BANK1
      +1  BANK12
  3329 ;;      Params:         4       0       0       0       0       0       0       0       0       0       0       0       
      +0       0
  3330 ;;      Locals:         0       2       0       0       0       0       0       0       0       0       0       0       
      +0       0
  3331 ;;      Temps:          1       0       0       0       0       0       0       0       0       0       0       0       
      +0       0
  3332 ;;      Totals:         5       2       0       0       0       0       0       0       0       0       0       0       
      +0       0
  3333 ;;Total ram usage:        7 bytes
  3334 ;; Hardware stack levels used: 1
  3335 ;; This function calls:
  3336 ;;		Nothing
  3337 ;; This function is called by:
  3338 ;;		_EUSART_print_num
  3339 ;; This function uses a non-reentrant model
  3340 ;;
  3341                           
  3342     038A                     ___awmod:	
  3343                           ;psect for function ___awmod
  3344                           
  3345     038A                     l1357:	
  3346                           ;incstack = 0
  3347                           ; Regs used in ___awmod: [wreg+status,2+status,0]
  3348                           
  3349     038A  0140               	movlb	0	; select bank0
  3350     038B  01A1               	clrf	___awmod@sign
  3351     038C                     l1359:
  3352     038C  1FFC               	btfss	___awmod@dividend+1,7
  3353     038D  2B8F               	goto	u931
  3354     038E  2B90               	goto	u930
  3355     038F                     u931:
  3356     038F  2B97               	goto	l1365
  3357     0390                     u930:
  3358     0390                     l1361:
  3359     0390  09FB               	comf	___awmod@dividend,f
  3360     0391  09FC               	comf	___awmod@dividend+1,f
  3361     0392  0AFB               	incf	___awmod@dividend,f
  3362     0393  1903               	skipnz
  3363     0394  0AFC               	incf	___awmod@dividend+1,f
  3364     0395                     l1363:
  3365     0395  01A1               	clrf	___awmod@sign
  3366     0396  0AA1               	incf	___awmod@sign,f
  3367     0397                     l1365:
  3368     0397  1FFA               	btfss	___awmod@divisor+1,7
  3369     0398  2B9A               	goto	u941
  3370     0399  2B9B               	goto	u940
  3371     039A                     u941:
  3372     039A  2BA0               	goto	l1369
  3373     039B                     u940:
  3374     039B                     l1367:
  3375     039B  09F9               	comf	___awmod@divisor,f
  3376     039C  09FA               	comf	___awmod@divisor+1,f
  3377     039D  0AF9               	incf	___awmod@divisor,f
  3378     039E  1903               	skipnz
  3379     039F  0AFA               	incf	___awmod@divisor+1,f
  3380     03A0                     l1369:
  3381     03A0  0879               	movf	___awmod@divisor,w
  3382     03A1  047A               	iorwf	___awmod@divisor+1,w
  3383     03A2  1903               	btfsc	3,2
  3384     03A3  2BA5               	goto	u951
  3385     03A4  2BA6               	goto	u950
  3386     03A5                     u951:
  3387     03A5  2BCF               	goto	l1387
  3388     03A6                     u950:
  3389     03A6                     l1371:
  3390     03A6  01A0               	clrf	___awmod@counter
  3391     03A7  0AA0               	incf	___awmod@counter,f
  3392     03A8  2BB2               	goto	l1377
  3393     03A9                     l1373:
  3394     03A9  3001               	movlw	1
  3395     03AA                     u965:
  3396     03AA  35F9               	lslf	___awmod@divisor,f
  3397     03AB  0DFA               	rlf	___awmod@divisor+1,f
  3398     03AC  0B89               	decfsz	9,f
  3399     03AD  2BAA               	goto	u965
  3400     03AE                     l1375:
  3401     03AE  3001               	movlw	1
  3402     03AF  00FD               	movwf	??___awmod
  3403     03B0  087D               	movf	??___awmod,w
  3404     03B1  07A0               	addwf	___awmod@counter,f
  3405     03B2                     l1377:
  3406     03B2  1FFA               	btfss	___awmod@divisor+1,7
  3407     03B3  2BB5               	goto	u971
  3408     03B4  2BB6               	goto	u970
  3409     03B5                     u971:
  3410     03B5  2BA9               	goto	l1373
  3411     03B6                     u970:
  3412     03B6                     l1379:
  3413     03B6  087A               	movf	___awmod@divisor+1,w
  3414     03B7  027C               	subwf	___awmod@dividend+1,w
  3415     03B8  1D03               	skipz
  3416     03B9  2BBC               	goto	u985
  3417     03BA  0879               	movf	___awmod@divisor,w
  3418     03BB  027B               	subwf	___awmod@dividend,w
  3419     03BC                     u985:
  3420     03BC  1C03               	skipc
  3421     03BD  2BBF               	goto	u981
  3422     03BE  2BC0               	goto	u980
  3423     03BF                     u981:
  3424     03BF  2BC4               	goto	l1383
  3425     03C0                     u980:
  3426     03C0                     l1381:
  3427     03C0  0879               	movf	___awmod@divisor,w
  3428     03C1  02FB               	subwf	___awmod@dividend,f
  3429     03C2  087A               	movf	___awmod@divisor+1,w
  3430     03C3  3BFC               	subwfb	___awmod@dividend+1,f
  3431     03C4                     l1383:
  3432     03C4  3001               	movlw	1
  3433     03C5                     u995:
  3434     03C5  36FA               	lsrf	___awmod@divisor+1,f
  3435     03C6  0CF9               	rrf	___awmod@divisor,f
  3436     03C7  0B89               	decfsz	9,f
  3437     03C8  2BC5               	goto	u995
  3438     03C9                     l1385:
  3439     03C9  3001               	movlw	1
  3440     03CA  02A0               	subwf	___awmod@counter,f
  3441     03CB  1D03               	btfss	3,2
  3442     03CC  2BCE               	goto	u1001
  3443     03CD  2BCF               	goto	u1000
  3444     03CE                     u1001:
  3445     03CE  2BB6               	goto	l1379
  3446     03CF                     u1000:
  3447     03CF                     l1387:
  3448     03CF  0821               	movf	___awmod@sign,w
  3449     03D0  1903               	btfsc	3,2
  3450     03D1  2BD3               	goto	u1011
  3451     03D2  2BD4               	goto	u1010
  3452     03D3                     u1011:
  3453     03D3  2BD9               	goto	l1391
  3454     03D4                     u1010:
  3455     03D4                     l1389:
  3456     03D4  09FB               	comf	___awmod@dividend,f
  3457     03D5  09FC               	comf	___awmod@dividend+1,f
  3458     03D6  0AFB               	incf	___awmod@dividend,f
  3459     03D7  1903               	skipnz
  3460     03D8  0AFC               	incf	___awmod@dividend+1,f
  3461     03D9                     l1391:
  3462     03D9  087C               	movf	___awmod@dividend+1,w
  3463     03DA  00FA               	movwf	?___awmod+1
  3464     03DB  087B               	movf	___awmod@dividend,w
  3465     03DC  00F9               	movwf	?___awmod
  3466     03DD                     l479:
  3467     03DD  0008               	return
  3468     03DE                     __end_of___awmod:
  3469                           
  3470                           	psect	text17
  3471     03DE                     __ptext17:	
  3472 ;; *************** function ___awdiv *****************
  3473 ;; Defined at:
  3474 ;;		line 5 in file "C:\Program Files\Microchip\xc8\v2.40\pic\sources\c99\common\awdiv.c"
  3475 ;; Parameters:    Size  Location     Type
  3476 ;;  divisor         2    0[COMMON] int 
  3477 ;;  dividend        2    2[COMMON] int 
  3478 ;; Auto vars:     Size  Location     Type
  3479 ;;  quotient        2    7[COMMON] int 
  3480 ;;  sign            1    6[COMMON] unsigned char 
  3481 ;;  counter         1    5[COMMON] unsigned char 
  3482 ;; Return value:  Size  Location     Type
  3483 ;;                  2    0[COMMON] int 
  3484 ;; Registers used:
  3485 ;;		wreg, status,2, status,0
  3486 ;; Tracked objects:
  3487 ;;		On entry : 0/0
  3488 ;;		On exit  : 0/0
  3489 ;;		Unchanged: 0/0
  3490 ;; Data sizes:     COMMON   BANK0   BANK1   BANK2   BANK3   BANK4   BANK5   BANK6   BANK7   BANK8   BANK9  BANK10  BANK1
      +1  BANK12
  3491 ;;      Params:         4       0       0       0       0       0       0       0       0       0       0       0       
      +0       0
  3492 ;;      Locals:         4       0       0       0       0       0       0       0       0       0       0       0       
      +0       0
  3493 ;;      Temps:          1       0       0       0       0       0       0       0       0       0       0       0       
      +0       0
  3494 ;;      Totals:         9       0       0       0       0       0       0       0       0       0       0       0       
      +0       0
  3495 ;;Total ram usage:        9 bytes
  3496 ;; Hardware stack levels used: 1
  3497 ;; This function calls:
  3498 ;;		Nothing
  3499 ;; This function is called by:
  3500 ;;		_EUSART_print_num
  3501 ;; This function uses a non-reentrant model
  3502 ;;
  3503                           
  3504     03DE                     ___awdiv:	
  3505                           ;psect for function ___awdiv
  3506                           
  3507     03DE                     l1313:	
  3508                           ;incstack = 0
  3509                           ; Regs used in ___awdiv: [wreg+status,2+status,0]
  3510                           
  3511     03DE  01F6               	clrf	___awdiv@sign
  3512     03DF                     l1315:
  3513     03DF  1FF1               	btfss	___awdiv@divisor+1,7
  3514     03E0  2BE2               	goto	u831
  3515     03E1  2BE3               	goto	u830
  3516     03E2                     u831:
  3517     03E2  2BEA               	goto	l1321
  3518     03E3                     u830:
  3519     03E3                     l1317:
  3520     03E3  09F0               	comf	___awdiv@divisor,f
  3521     03E4  09F1               	comf	___awdiv@divisor+1,f
  3522     03E5  0AF0               	incf	___awdiv@divisor,f
  3523     03E6  1903               	skipnz
  3524     03E7  0AF1               	incf	___awdiv@divisor+1,f
  3525     03E8                     l1319:
  3526     03E8  01F6               	clrf	___awdiv@sign
  3527     03E9  0AF6               	incf	___awdiv@sign,f
  3528     03EA                     l1321:
  3529     03EA  1FF3               	btfss	___awdiv@dividend+1,7
  3530     03EB  2BED               	goto	u841
  3531     03EC  2BEE               	goto	u840
  3532     03ED                     u841:
  3533     03ED  2BF7               	goto	l1327
  3534     03EE                     u840:
  3535     03EE                     l1323:
  3536     03EE  09F2               	comf	___awdiv@dividend,f
  3537     03EF  09F3               	comf	___awdiv@dividend+1,f
  3538     03F0  0AF2               	incf	___awdiv@dividend,f
  3539     03F1  1903               	skipnz
  3540     03F2  0AF3               	incf	___awdiv@dividend+1,f
  3541     03F3                     l1325:
  3542     03F3  3001               	movlw	1
  3543     03F4  00F4               	movwf	??___awdiv
  3544     03F5  0874               	movf	??___awdiv,w
  3545     03F6  06F6               	xorwf	___awdiv@sign,f
  3546     03F7                     l1327:
  3547     03F7  01F7               	clrf	___awdiv@quotient
  3548     03F8  01F8               	clrf	___awdiv@quotient+1
  3549     03F9                     l1329:
  3550     03F9  0870               	movf	___awdiv@divisor,w
  3551     03FA  0471               	iorwf	___awdiv@divisor+1,w
  3552     03FB  1903               	btfsc	3,2
  3553     03FC  2BFE               	goto	u851
  3554     03FD  2BFF               	goto	u850
  3555     03FE                     u851:
  3556     03FE  2C2E               	goto	l1349
  3557     03FF                     u850:
  3558     03FF                     l1331:
  3559     03FF  01F5               	clrf	___awdiv@counter
  3560     0400  0AF5               	incf	___awdiv@counter,f
  3561     0401  2C0B               	goto	l1337
  3562     0402                     l1333:
  3563     0402  3001               	movlw	1
  3564     0403                     u865:
  3565     0403  35F0               	lslf	___awdiv@divisor,f
  3566     0404  0DF1               	rlf	___awdiv@divisor+1,f
  3567     0405  0B89               	decfsz	9,f
  3568     0406  2C03               	goto	u865
  3569     0407                     l1335:
  3570     0407  3001               	movlw	1
  3571     0408  00F4               	movwf	??___awdiv
  3572     0409  0874               	movf	??___awdiv,w
  3573     040A  07F5               	addwf	___awdiv@counter,f
  3574     040B                     l1337:
  3575     040B  1FF1               	btfss	___awdiv@divisor+1,7
  3576     040C  2C0E               	goto	u871
  3577     040D  2C0F               	goto	u870
  3578     040E                     u871:
  3579     040E  2C02               	goto	l1333
  3580     040F                     u870:
  3581     040F                     l1339:
  3582     040F  3001               	movlw	1
  3583     0410                     u885:
  3584     0410  35F7               	lslf	___awdiv@quotient,f
  3585     0411  0DF8               	rlf	___awdiv@quotient+1,f
  3586     0412  0B89               	decfsz	9,f
  3587     0413  2C10               	goto	u885
  3588     0414  0871               	movf	___awdiv@divisor+1,w
  3589     0415  0273               	subwf	___awdiv@dividend+1,w
  3590     0416  1D03               	skipz
  3591     0417  2C1A               	goto	u895
  3592     0418  0870               	movf	___awdiv@divisor,w
  3593     0419  0272               	subwf	___awdiv@dividend,w
  3594     041A                     u895:
  3595     041A  1C03               	skipc
  3596     041B  2C1D               	goto	u891
  3597     041C  2C1E               	goto	u890
  3598     041D                     u891:
  3599     041D  2C23               	goto	l1345
  3600     041E                     u890:
  3601     041E                     l1341:
  3602     041E  0870               	movf	___awdiv@divisor,w
  3603     041F  02F2               	subwf	___awdiv@dividend,f
  3604     0420  0871               	movf	___awdiv@divisor+1,w
  3605     0421  3BF3               	subwfb	___awdiv@dividend+1,f
  3606     0422                     l1343:
  3607     0422  1477               	bsf	___awdiv@quotient,0
  3608     0423                     l1345:
  3609     0423  3001               	movlw	1
  3610     0424                     u905:
  3611     0424  36F1               	lsrf	___awdiv@divisor+1,f
  3612     0425  0CF0               	rrf	___awdiv@divisor,f
  3613     0426  0B89               	decfsz	9,f
  3614     0427  2C24               	goto	u905
  3615     0428                     l1347:
  3616     0428  3001               	movlw	1
  3617     0429  02F5               	subwf	___awdiv@counter,f
  3618     042A  1D03               	btfss	3,2
  3619     042B  2C2D               	goto	u911
  3620     042C  2C2E               	goto	u910
  3621     042D                     u911:
  3622     042D  2C0F               	goto	l1339
  3623     042E                     u910:
  3624     042E                     l1349:
  3625     042E  0876               	movf	___awdiv@sign,w
  3626     042F  1903               	btfsc	3,2
  3627     0430  2C32               	goto	u921
  3628     0431  2C33               	goto	u920
  3629     0432                     u921:
  3630     0432  2C38               	goto	l1353
  3631     0433                     u920:
  3632     0433                     l1351:
  3633     0433  09F7               	comf	___awdiv@quotient,f
  3634     0434  09F8               	comf	___awdiv@quotient+1,f
  3635     0435  0AF7               	incf	___awdiv@quotient,f
  3636     0436  1903               	skipnz
  3637     0437  0AF8               	incf	___awdiv@quotient+1,f
  3638     0438                     l1353:
  3639     0438  0878               	movf	___awdiv@quotient+1,w
  3640     0439  00F1               	movwf	?___awdiv+1
  3641     043A  0877               	movf	___awdiv@quotient,w
  3642     043B  00F0               	movwf	?___awdiv
  3643     043C                     l466:
  3644     043C  0008               	return
  3645     043D                     __end_of___awdiv:
  3646                           
  3647                           	psect	text18
  3648     02E4                     __ptext18:	
  3649 ;; *************** function _EUSART_print *****************
  3650 ;; Defined at:
  3651 ;;		line 296 in file "main.c"
  3652 ;; Parameters:    Size  Location     Type
  3653 ;;  string          2    1[COMMON] PTR const unsigned char 
  3654 ;;		 -> STR_1(22), 
  3655 ;; Auto vars:     Size  Location     Type
  3656 ;;  c               1    6[COMMON] unsigned char 
  3657 ;; Return value:  Size  Location     Type
  3658 ;;                  1    wreg      void 
  3659 ;; Registers used:
  3660 ;;		wreg, fsr0l, fsr0h, status,2, status,0, pclath, cstack
  3661 ;; Tracked objects:
  3662 ;;		On entry : 0/0
  3663 ;;		On exit  : 0/0
  3664 ;;		Unchanged: 0/0
  3665 ;; Data sizes:     COMMON   BANK0   BANK1   BANK2   BANK3   BANK4   BANK5   BANK6   BANK7   BANK8   BANK9  BANK10  BANK1
      +1  BANK12
  3666 ;;      Params:         2       0       0       0       0       0       0       0       0       0       0       0       
      +0       0
  3667 ;;      Locals:         1       0       0       0       0       0       0       0       0       0       0       0       
      +0       0
  3668 ;;      Temps:          3       0       0       0       0       0       0       0       0       0       0       0       
      +0       0
  3669 ;;      Totals:         6       0       0       0       0       0       0       0       0       0       0       0       
      +0       0
  3670 ;;Total ram usage:        6 bytes
  3671 ;; Hardware stack levels used: 1
  3672 ;; Hardware stack levels required when called: 1
  3673 ;; This function calls:
  3674 ;;		_EUSART_write
  3675 ;; This function is called by:
  3676 ;;		_main
  3677 ;; This function uses a non-reentrant model
  3678 ;;
  3679                           
  3680     02E4                     _EUSART_print:	
  3681                           ;psect for function _EUSART_print
  3682                           
  3683     02E4                     l1449:	
  3684                           ;incstack = 0
  3685                           ; Regs used in _EUSART_print: [wreg-fsr0h+status,2+status,0+pclath+cstack]
  3686                           
  3687                           
  3688                           ;main.c: 297:     uint8_t c=0;
  3689     02E4  01F6               	clrf	EUSART_print@c
  3690                           
  3691                           ;main.c: 298:     while(string[c]!=0){
  3692     02E5  2AF9               	goto	l1455
  3693     02E6                     l1451:
  3694                           
  3695                           ;main.c: 299:         EUSART_write(string[c]);
  3696     02E6  0872               	movf	EUSART_print@string+1,w
  3697     02E7  00F4               	movwf	??_EUSART_print+1
  3698     02E8  0871               	movf	EUSART_print@string,w
  3699     02E9  00F3               	movwf	??_EUSART_print
  3700     02EA  0876               	movf	EUSART_print@c,w
  3701     02EB  0773               	addwf	??_EUSART_print,w
  3702     02EC  0084               	movwf	4
  3703     02ED  0874               	movf	??_EUSART_print+1,w
  3704     02EE  1803               	skipnc
  3705     02EF  0A74               	incf	??_EUSART_print+1,w
  3706     02F0  0085               	movwf	5
  3707     02F1  0800               	movf	0,w	;code access
  3708     02F2  3182  2256  3182   	fcall	_EUSART_write
  3709     02F5                     l1453:
  3710                           
  3711                           ;main.c: 300:         c++;
  3712     02F5  3001               	movlw	1
  3713     02F6  00F3               	movwf	??_EUSART_print
  3714     02F7  0873               	movf	??_EUSART_print,w
  3715     02F8  07F6               	addwf	EUSART_print@c,f
  3716     02F9                     l1455:
  3717                           
  3718                           ;main.c: 298:     while(string[c]!=0){
  3719     02F9  0872               	movf	EUSART_print@string+1,w
  3720     02FA  00F4               	movwf	??_EUSART_print+1
  3721     02FB  0871               	movf	EUSART_print@string,w
  3722     02FC  00F3               	movwf	??_EUSART_print
  3723     02FD  0876               	movf	EUSART_print@c,w
  3724     02FE  0773               	addwf	??_EUSART_print,w
  3725     02FF  0084               	movwf	4
  3726     0300  0874               	movf	??_EUSART_print+1,w
  3727     0301  1803               	skipnc
  3728     0302  0A74               	incf	??_EUSART_print+1,w
  3729     0303  0085               	movwf	5
  3730     0304  0012               	moviw fsr0++
  3731     0305  1D03               	btfss	3,2
  3732     0306  2B08               	goto	u1051
  3733     0307  2B09               	goto	u1050
  3734     0308                     u1051:
  3735     0308  2AE6               	goto	l1451
  3736     0309                     u1050:
  3737     0309                     l149:
  3738     0309  0008               	return
  3739     030A                     __end_of_EUSART_print:
  3740                           
  3741                           	psect	text19
  3742     0256                     __ptext19:	
  3743 ;; *************** function _EUSART_write *****************
  3744 ;; Defined at:
  3745 ;;		line 291 in file "main.c"
  3746 ;; Parameters:    Size  Location     Type
  3747 ;;  txData          1    wreg     unsigned char 
  3748 ;; Auto vars:     Size  Location     Type
  3749 ;;  txData          1    0[COMMON] unsigned char 
  3750 ;; Return value:  Size  Location     Type
  3751 ;;                  1    wreg      void 
  3752 ;; Registers used:
  3753 ;;		wreg
  3754 ;; Tracked objects:
  3755 ;;		On entry : 0/0
  3756 ;;		On exit  : 0/0
  3757 ;;		Unchanged: 0/0
  3758 ;; Data sizes:     COMMON   BANK0   BANK1   BANK2   BANK3   BANK4   BANK5   BANK6   BANK7   BANK8   BANK9  BANK10  BANK1
      +1  BANK12
  3759 ;;      Params:         0       0       0       0       0       0       0       0       0       0       0       0       
      +0       0
  3760 ;;      Locals:         1       0       0       0       0       0       0       0       0       0       0       0       
      +0       0
  3761 ;;      Temps:          0       0       0       0       0       0       0       0       0       0       0       0       
      +0       0
  3762 ;;      Totals:         1       0       0       0       0       0       0       0       0       0       0       0       
      +0       0
  3763 ;;Total ram usage:        1 bytes
  3764 ;; Hardware stack levels used: 1
  3765 ;; This function calls:
  3766 ;;		Nothing
  3767 ;; This function is called by:
  3768 ;;		_EUSART_print
  3769 ;;		_EUSART_print_num
  3770 ;; This function uses a non-reentrant model
  3771 ;;
  3772                           
  3773     0256                     _EUSART_write:	
  3774                           ;psect for function _EUSART_write
  3775                           
  3776                           
  3777                           ;incstack = 0
  3778                           ; Regs used in _EUSART_write: [wreg]
  3779                           ;EUSART_write@txData stored from wreg
  3780     0256  00F0               	movwf	EUSART_write@txData
  3781     0257                     l1309:
  3782     0257                     l140:	
  3783                           ;main.c: 292:     while(PIR3bits.TX2IF == 0){}
  3784                           
  3785     0257  0141               	movlb	1	; select bank1
  3786     0258  1E0F               	btfss	15,4	;volatile
  3787     0259  2A5B               	goto	u821
  3788     025A  2A5C               	goto	u820
  3789     025B                     u821:
  3790     025B  2A57               	goto	l140
  3791     025C                     u820:
  3792     025C                     l1311:
  3793                           
  3794                           ;main.c: 293:     TX2REG = txData;
  3795     025C  0870               	movf	EUSART_write@txData,w
  3796     025D  014C               	movlb	12	; select bank12
  3797     025E  0097               	movwf	23	;volatile
  3798     025F                     l143:
  3799     025F  0008               	return
  3800     0260                     __end_of_EUSART_write:
  3801                           
  3802                           	psect	text20
  3803     0278                     __ptext20:	
  3804 ;; *************** function _Analog_setup *****************
  3805 ;; Defined at:
  3806 ;;		line 314 in file "main.c"
  3807 ;; Parameters:    Size  Location     Type
  3808 ;;		None
  3809 ;; Auto vars:     Size  Location     Type
  3810 ;;		None
  3811 ;; Return value:  Size  Location     Type
  3812 ;;                  1    wreg      void 
  3813 ;; Registers used:
  3814 ;;		wreg, status,2, status,0
  3815 ;; Tracked objects:
  3816 ;;		On entry : 0/0
  3817 ;;		On exit  : 0/0
  3818 ;;		Unchanged: 0/0
  3819 ;; Data sizes:     COMMON   BANK0   BANK1   BANK2   BANK3   BANK4   BANK5   BANK6   BANK7   BANK8   BANK9  BANK10  BANK1
      +1  BANK12
  3820 ;;      Params:         0       0       0       0       0       0       0       0       0       0       0       0       
      +0       0
  3821 ;;      Locals:         0       0       0       0       0       0       0       0       0       0       0       0       
      +0       0
  3822 ;;      Temps:          0       0       0       0       0       0       0       0       0       0       0       0       
      +0       0
  3823 ;;      Totals:         0       0       0       0       0       0       0       0       0       0       0       0       
      +0       0
  3824 ;;Total ram usage:        0 bytes
  3825 ;; Hardware stack levels used: 1
  3826 ;; This function calls:
  3827 ;;		Nothing
  3828 ;; This function is called by:
  3829 ;;		_main
  3830 ;; This function uses a non-reentrant model
  3831 ;;
  3832                           
  3833     0278                     _Analog_setup:	
  3834                           ;psect for function _Analog_setup
  3835                           
  3836     0278                     l1439:	
  3837                           ;incstack = 0
  3838                           ; Regs used in _Analog_setup: [wreg+status,2+status,0]
  3839                           
  3840                           
  3841                           ;main.c: 316:     TRISA |= (1<<0);
  3842     0278  0140               	movlb	0	; select bank0
  3843     0279  1412               	bsf	18,0	;volatile
  3844                           
  3845                           ;main.c: 317:     ANSELA |= (1<<0);
  3846     027A  017D               	movlb	61	; select bank61
  3847     027B  140C               	bsf	12,0	;volatile
  3848     027C                     l1441:
  3849                           
  3850                           ;main.c: 318:     ADPCH = 0 & 0b00111111;
  3851     027C  017A               	movlb	58	; select bank58
  3852     027D  019F               	clrf	31	;volatile
  3853                           
  3854                           ;main.c: 319:     ADREF = 0x0;
  3855     027E  01AB               	clrf	43	;volatile
  3856     027F                     l1443:
  3857                           
  3858                           ;main.c: 320:     ADCON0bits.CS = 1;
  3859     027F  1626               	bsf	38,4	;volatile
  3860     0280                     l1445:
  3861                           
  3862                           ;main.c: 321:     ADCON0bits.FM = 1;
  3863     0280  0826               	movf	38,w	;volatile
  3864     0281  39F3               	andlw	-13
  3865     0282  3804               	iorlw	4
  3866     0283  00A6               	movwf	38	;volatile
  3867     0284                     l155:
  3868     0284  0008               	return
  3869     0285                     __end_of_Analog_setup:
  3870                           
  3871                           	psect	text21
  3872     0260                     __ptext21:	
  3873 ;; *************** function _Analog_read *****************
  3874 ;; Defined at:
  3875 ;;		line 324 in file "main.c"
  3876 ;; Parameters:    Size  Location     Type
  3877 ;;		None
  3878 ;; Auto vars:     Size  Location     Type
  3879 ;;		None
  3880 ;; Return value:  Size  Location     Type
  3881 ;;                  2    0[COMMON] unsigned short 
  3882 ;; Registers used:
  3883 ;;		wreg
  3884 ;; Tracked objects:
  3885 ;;		On entry : 0/0
  3886 ;;		On exit  : 0/0
  3887 ;;		Unchanged: 0/0
  3888 ;; Data sizes:     COMMON   BANK0   BANK1   BANK2   BANK3   BANK4   BANK5   BANK6   BANK7   BANK8   BANK9  BANK10  BANK1
      +1  BANK12
  3889 ;;      Params:         2       0       0       0       0       0       0       0       0       0       0       0       
      +0       0
  3890 ;;      Locals:         0       0       0       0       0       0       0       0       0       0       0       0       
      +0       0
  3891 ;;      Temps:          0       0       0       0       0       0       0       0       0       0       0       0       
      +0       0
  3892 ;;      Totals:         2       0       0       0       0       0       0       0       0       0       0       0       
      +0       0
  3893 ;;Total ram usage:        2 bytes
  3894 ;; Hardware stack levels used: 1
  3895 ;; This function calls:
  3896 ;;		Nothing
  3897 ;; This function is called by:
  3898 ;;		_main
  3899 ;; This function uses a non-reentrant model
  3900 ;;
  3901                           
  3902     0260                     _Analog_read:	
  3903                           ;psect for function _Analog_read
  3904                           
  3905     0260                     l1457:	
  3906                           ;incstack = 0
  3907                           ; Regs used in _Analog_read: [wreg]
  3908                           
  3909                           
  3910                           ;main.c: 325:     ADCON0bits.ON = 1;
  3911     0260  017A               	movlb	58	; select bank58
  3912     0261  17A6               	bsf	38,7	;volatile
  3913                           
  3914                           ;main.c: 326:     ADCON0bits.GO = 1;
  3915     0262  1426               	bsf	38,0	;volatile
  3916     0263                     l158:	
  3917                           ;main.c: 327:     while(ADCON0bits.GO);
  3918                           
  3919     0263  1826               	btfsc	38,0	;volatile
  3920     0264  2A66               	goto	u1061
  3921     0265  2A67               	goto	u1060
  3922     0266                     u1061:
  3923     0266  2A63               	goto	l158
  3924     0267                     u1060:
  3925     0267                     l1459:
  3926                           
  3927                           ;main.c: 329:     return ADRES;
  3928     0267  081E               	movf	30,w	;volatile
  3929     0268  00F1               	movwf	?_Analog_read+1
  3930     0269  081D               	movf	29,w	;volatile
  3931     026A  00F0               	movwf	?_Analog_read
  3932     026B                     l161:
  3933     026B  0008               	return
  3934     026C                     __end_of_Analog_read:
  3935     007E                     btemp	set	126	;btemp
  3936     007E                     wtemp0	set	126
  3937                           
  3938                           	psect	idloc
  3939                           
  3940                           ;Config register IDLOC0 @ 0x8000
  3941                           ;	unspecified, using default values
  3942     8000                     	org	32768
  3943     8000  3FFF               	dw	16383
  3944                           
  3945                           ;Config register IDLOC1 @ 0x8001
  3946                           ;	unspecified, using default values
  3947     8001                     	org	32769
  3948     8001  3FFF               	dw	16383
  3949                           
  3950                           ;Config register IDLOC2 @ 0x8002
  3951                           ;	unspecified, using default values
  3952     8002                     	org	32770
  3953     8002  3FFF               	dw	16383
  3954                           
  3955                           ;Config register IDLOC3 @ 0x8003
  3956                           ;	unspecified, using default values
  3957     8003                     	org	32771
  3958     8003  3FFF               	dw	16383
  3959                           
  3960                           	psect	config
  3961                           
  3962                           ;Config register CONFIG1 @ 0x8007
  3963                           ;	External Oscillator Selection bits
  3964                           ;	FEXTOSC = OFF, Oscillator not enabled
  3965                           ;	Reset Oscillator Selection bits
  3966                           ;	RSTOSC = HFINTOSC_1MHz, HFINTOSC (1MHz)
  3967                           ;	Clock Out Enable bit
  3968                           ;	CLKOUTEN = OFF, CLKOUT function is disabled; i/o or oscillator function on OSC2
  3969                           ;	VDD Range Analog Calibration Selection bit
  3970                           ;	VDDAR = HI, Internal analog systems are calibrated for operation between VDD = 2.3 - 5
      +                          .5V
  3971     8007                     	org	32775
  3972     8007  3FEC               	dw	16364
  3973                           
  3974                           ;Config register CONFIG2 @ 0x8008
  3975                           ;	Master Clear Enable bit
  3976                           ;	MCLRE = EXTMCLR, If LVP = 0, MCLR pin is MCLR; If LVP = 1, RA3 pin function is MCLR
  3977                           ;	Power-up Timer Selection bits
  3978                           ;	PWRTS = PWRT_OFF, PWRT is disabled
  3979                           ;	WDT Operating Mode bits
  3980                           ;	WDTE = ON, WDT enabled regardless of Sleep; SEN bit is ignored
  3981                           ;	Brown-out Reset Enable bits
  3982                           ;	BOREN = ON, Brown-out Reset enabled, SBOREN bit is ignored
  3983                           ;	DAC Buffer Automatic Range Select Enable bit
  3984                           ;	DACAUTOEN = OFF, DAC Buffer reference range is determined by the REFRNG bit
  3985                           ;	Brown-out Reset Voltage Selection bit
  3986                           ;	BORV = LO, Brown-out Reset Voltage (VBOR) set to 1.9V
  3987                           ;	ZCD Disable bit
  3988                           ;	ZCD = OFF, ZCD module is disabled; ZCD can be enabled by setting the ZCDSEN bit of ZCD
      +                          CON
  3989                           ;	PPSLOCKED One-Way Set Enable bit
  3990                           ;	PPS1WAY = ON, The PPSLOCKED bit can be cleared and set only once after an unlocking se
      +                          quence is executed; once PPSLOCKED is set, all future changes to PPS registers are preve
      +                          nted
  3991                           ;	Stack Overflow/Underflow Reset Enable bit
  3992                           ;	STVREN = ON, Stack Overflow or Underflow will cause a reset
  3993     8008                     	org	32776
  3994     8008  3FFF               	dw	16383
  3995                           
  3996                           ;Config register CONFIG3 @ 0x8009
  3997                           ;	unspecified, using default values
  3998     8009                     	org	32777
  3999     8009  3FFF               	dw	16383
  4000                           
  4001                           ;Config register CONFIG4 @ 0x800A
  4002                           ;	Boot Block Size Selection bits
  4003                           ;	BBSIZE = BB512, 512 words boot block size
  4004                           ;	Boot Block Enable bit
  4005                           ;	BBEN = OFF, Boot Block disabled
  4006                           ;	Storage Area Flash (SAF) Enable bit
  4007                           ;	SAFEN = OFF, SAF disabled
  4008                           ;	Application Block Write Protection bit
  4009                           ;	WRTAPP = OFF, Application Block is NOT write protected
  4010                           ;	Boot Block Write Protection bit
  4011                           ;	WRTB = OFF, Boot Block is NOT write protected
  4012                           ;	Configuration Register Write Protection bit
  4013                           ;	WRTC = OFF, Configuration Register is NOT write protected
  4014                           ;	Data EEPROM Write-Protection bit
  4015                           ;	WRTD = OFF, Data EEPROM is NOT write-protected
  4016                           ;	Storage Area Flash (SAF) Write Protection bit
  4017                           ;	WRTSAF = OFF, SAF is NOT write protected
  4018                           ;	Low Voltage Programming Enable bit
  4019                           ;	LVP = ON, Low Voltage programming enabled. MCLR/Vpp pin function is MCLR. MCLRE Config
      +                          uration bit is ignored
  4020     800A                     	org	32778
  4021     800A  3FFF               	dw	16383
  4022                           
  4023                           ;Config register CONFIG5 @ 0x800B
  4024                           ;	Program Flash Memory Code Protection bit
  4025                           ;	CP = OFF, Program Flash Memory code protection is disabled
  4026                           ;	Data EEPROM Code Protection bit
  4027                           ;	CPD = OFF, EEPROM code protection is disabled
  4028     800B                     	org	32779
  4029     800B  3FFF               	dw	16383

Data Sizes:
    Strings     22
    Constant    0
    Data        0
    BSS         0
    Persistent  32
    Stack       0

Auto Spaces:
    Space          Size  Autos    Used
    COMMON           14     14      14
    BANK0            80     41      41
    BANK1            80      0       0
    BANK2            80      0       0
    BANK3            80      0       0
    BANK4            80      0       0
    BANK5            80      0       0
    BANK6            80      0       0
    BANK7            80      0       0
    BANK8            80      0       0
    BANK9            80      0       0
    BANK10           80      0       0
    BANK11           80      0       0
    BANK12           48      0       0

Pointer List with Targets:

    EUSART_print@string	PTR const unsigned char  size(2) Largest target is 22
		 -> STR_1(CODE[22]), 

    I2C_read_query@data	PTR unsigned char  size(1) Largest target is 11
		 -> I2C_MCP23008_read@rx_data(BANK0[11]), I2C_SHT4x_read@rx_data(COMMON[6]), 


Critical Paths under _main in COMMON

    _main->___xxtofl
    ___fltol->___xxtofl
    ___flmul->___xxtofl
    _I2C_MCP23008_read->_I2C_read_query
    _I2C_read_query->_I2C_read
    _I2C_read_query->_I2C_write
    _EUSART_print_num->___awmod
    ___awmod->___awdiv
    _EUSART_print->_EUSART_write

Critical Paths under _main in BANK0

    _main->___fltol
    ___fltol->___flmul
    _EUSART_print_num->___awmod

Critical Paths under _main in BANK1

    None.

Critical Paths under _main in BANK2

    None.

Critical Paths under _main in BANK3

    None.

Critical Paths under _main in BANK4

    None.

Critical Paths under _main in BANK5

    None.

Critical Paths under _main in BANK6

    None.

Critical Paths under _main in BANK7

    None.

Critical Paths under _main in BANK8

    None.

Critical Paths under _main in BANK9

    None.

Critical Paths under _main in BANK10

    None.

Critical Paths under _main in BANK11

    None.

Critical Paths under _main in BANK12

    None.

Call Graph Tables:

 ---------------------------------------------------------------------------------
 (Depth) Function   	        Calls       Base Space   Used Autos Params    Refs
 ---------------------------------------------------------------------------------
 (0) _main                                                14    14      0    5681
                                             36 BANK0      5     5      0
                        _Analog_read
                       _Analog_setup
                       _EUSART_print
                   _EUSART_print_num
                       _EUSART_setup
                  _I2C_MCP23008_read
                          _I2C_setup
                          _WDT_setup
                            ___flmul
                            ___fltol
                           ___xxtofl
 ---------------------------------------------------------------------------------
 (1) ___xxtofl                                            14    10      4     550
                                              0 COMMON    14    10      4
 ---------------------------------------------------------------------------------
 (1) ___fltol                                             10     6      4     305
                                             26 BANK0     10     6      4
                            ___flmul (ARG)
                           ___xxtofl (ARG)
 ---------------------------------------------------------------------------------
 (1) ___flmul                                             26    18      8    2721
                                              0 BANK0     26    18      8
                          __Umul8_16
                           ___xxtofl (ARG)
 ---------------------------------------------------------------------------------
 (2) __Umul8_16                                            9     7      2     799
                                              0 COMMON     9     7      2
 ---------------------------------------------------------------------------------
 (1) _WDT_setup                                            0     0      0       0
 ---------------------------------------------------------------------------------
 (1) _I2C_setup                                            1     1      0       1
 ---------------------------------------------------------------------------------
 (1) _I2C_MCP23008_read                                   11    11      0     508
                                              0 BANK0     11    11      0
                     _I2C_read_query
 ---------------------------------------------------------------------------------
 (2) _I2C_read_query                                       6     4      2     484
                                              1 COMMON     6     4      2
                           _I2C_read
                          _I2C_start
                           _I2C_stop
                          _I2C_write
 ---------------------------------------------------------------------------------
 (3) _I2C_write                                            1     1      0      22
                                              0 COMMON     1     1      0
                           _I2C_wait
 ---------------------------------------------------------------------------------
 (3) _I2C_stop                                             0     0      0       0
                           _I2C_wait
 ---------------------------------------------------------------------------------
 (3) _I2C_start                                            0     0      0       0
                           _I2C_wait
 ---------------------------------------------------------------------------------
 (3) _I2C_read                                             1     1      0      23
                                              0 COMMON     1     1      0
                           _I2C_wait
 ---------------------------------------------------------------------------------
 (4) _I2C_wait                                             0     0      0       0
 ---------------------------------------------------------------------------------
 (1) _EUSART_setup                                         0     0      0       0
 ---------------------------------------------------------------------------------
 (1) _EUSART_print_num                                     6     6      0    1361
                                              2 BANK0      6     6      0
                       _EUSART_write
                            ___awdiv
                            ___awmod
 ---------------------------------------------------------------------------------
 (2) ___awmod                                              7     3      4     600
                                              9 COMMON     5     1      4
                                              0 BANK0      2     2      0
                            ___awdiv (ARG)
 ---------------------------------------------------------------------------------
 (2) ___awdiv                                              9     5      4     604
                                              0 COMMON     9     5      4
 ---------------------------------------------------------------------------------
 (1) _EUSART_print                                         6     4      2     188
                                              1 COMMON     6     4      2
                       _EUSART_write
 ---------------------------------------------------------------------------------
 (2) _EUSART_write                                         1     1      0      22
                                              0 COMMON     1     1      0
 ---------------------------------------------------------------------------------
 (1) _Analog_setup                                         0     0      0       0
 ---------------------------------------------------------------------------------
 (1) _Analog_read                                          2     0      2       0
                                              0 COMMON     2     0      2
 ---------------------------------------------------------------------------------
 Estimated maximum stack depth 4
 ---------------------------------------------------------------------------------

 Call Graph Graphs:

 _main (ROOT)
   _Analog_read
   _Analog_setup
   _EUSART_print
     _EUSART_write
   _EUSART_print_num
     _EUSART_write
     ___awdiv
     ___awmod
       ___awdiv (ARG)
   _EUSART_setup
   _I2C_MCP23008_read
     _I2C_read_query
       _I2C_read
         _I2C_wait
       _I2C_start
         _I2C_wait
       _I2C_stop
         _I2C_wait
       _I2C_write
         _I2C_wait
   _I2C_setup
   _WDT_setup
   ___flmul
     __Umul8_16
     ___xxtofl (ARG)
   ___fltol
     ___flmul (ARG)
     ___xxtofl (ARG)
   ___xxtofl

 Address spaces:
Name               Size   Autos  Total    Cost      Usage
BIGRAM             3F0      0       0       0        0.0%
EEDATA              80      0       0       0        0.0%
NULL                 0      0       0       0        0.0%
CODE                 0      0       0       0        0.0%
BITCOMMON            E      0       0       1        0.0%
BITSFR0              0      0       0       1        0.0%
SFR0                 0      0       0       1        0.0%
COMMON               E      E       E       2      100.0%
BITSFR1              0      0       0       2        0.0%
SFR1                 0      0       0       2        0.0%
BITSFR2              0      0       0       3        0.0%
SFR2                 0      0       0       3        0.0%
STACK                0      0       0       3        0.0%
BITSFR3              0      0       0       4        0.0%
SFR3                 0      0       0       4        0.0%
ABS                  0      0       0       4        0.0%
BITBANK0            50      0       0       5        0.0%
BITSFR4              0      0       0       5        0.0%
SFR4                 0      0       0       5        0.0%
BANK0               50     29      29       6       51.2%
BITSFR5              0      0       0       6        0.0%
SFR5                 0      0       0       6        0.0%
BITBANK1            50      0       0       7        0.0%
BITSFR6              0      0       0       7        0.0%
SFR6                 0      0       0       7        0.0%
BANK1               50      0       0       8        0.0%
BITSFR7              0      0       0       8        0.0%
SFR7                 0      0       0       8        0.0%
BITBANK2            50      0       0       9        0.0%
BITSFR8              0      0       0       9        0.0%
SFR8                 0      0       0       9        0.0%
BANK2               50      0       0      10        0.0%
BITSFR9              0      0       0      10        0.0%
SFR9                 0      0       0      10        0.0%
BITBANK3            50      0       0      11        0.0%
BITSFR10             0      0       0      11        0.0%
SFR10                0      0       0      11        0.0%
BANK3               50      0       0      12        0.0%
BITSFR11             0      0       0      12        0.0%
SFR11                0      0       0      12        0.0%
BITBANK4            50      0       0      13        0.0%
BITSFR12             0      0       0      13        0.0%
SFR12                0      0       0      13        0.0%
BANK4               50      0       0      14        0.0%
BITSFR13             0      0       0      14        0.0%
SFR13                0      0       0      14        0.0%
BITBANK5            50      0       0      15        0.0%
BITSFR14             0      0       0      15        0.0%
SFR14                0      0       0      15        0.0%
BANK5               50      0       0      16        0.0%
BITSFR15             0      0       0      16        0.0%
SFR15                0      0       0      16        0.0%
BITBANK6            50      0       0      17        0.0%
BITSFR16             0      0       0      17        0.0%
SFR16                0      0       0      17        0.0%
BANK6               50      0       0      18        0.0%
BITSFR17             0      0       0      18        0.0%
SFR17                0      0       0      18        0.0%
BITBANK7            50      0       0      19        0.0%
BITSFR18             0      0       0      19        0.0%
SFR18                0      0       0      19        0.0%
BANK7               50      0       0      20        0.0%
BITSFR19             0      0       0      20        0.0%
SFR19                0      0       0      20        0.0%
BITBANK8            50      0       0      21        0.0%
BITSFR20             0      0       0      21        0.0%
SFR20                0      0       0      21        0.0%
BANK8               50      0       0      22        0.0%
BITSFR21             0      0       0      22        0.0%
SFR21                0      0       0      22        0.0%
BITBANK9            50      0       0      23        0.0%
BITSFR22             0      0       0      23        0.0%
SFR22                0      0       0      23        0.0%
BANK9               50      0       0      24        0.0%
BITSFR23             0      0       0      24        0.0%
SFR23                0      0       0      24        0.0%
BITBANK10           50      0       0      25        0.0%
BITSFR24             0      0       0      25        0.0%
SFR24                0      0       0      25        0.0%
BANK10              50      0       0      26        0.0%
BITSFR25             0      0       0      26        0.0%
SFR25                0      0       0      26        0.0%
BITBANK11           50      0       0      27        0.0%
BITSFR26             0      0       0      27        0.0%
SFR26                0      0       0      27        0.0%
BANK11              50      0       0      28        0.0%
BITSFR27             0      0       0      28        0.0%
SFR27                0      0       0      28        0.0%
BITBANK12           30      0       0      29        0.0%
BITSFR28             0      0       0      29        0.0%
SFR28                0      0       0      29        0.0%
BANK12              30      0       0      30        0.0%
BITSFR29             0      0       0      30        0.0%
SFR29                0      0       0      30        0.0%
BITSFR30             0      0       0      31        0.0%
SFR30                0      0       0      31        0.0%
DATA                 0      0       0      31        0.0%
BITSFR31             0      0       0      32        0.0%
SFR31                0      0       0      32        0.0%
BITSFR32             0      0       0      33        0.0%
SFR32                0      0       0      33        0.0%
BITSFR33             0      0       0      34        0.0%
SFR33                0      0       0      34        0.0%
BITSFR34             0      0       0      35        0.0%
SFR34                0      0       0      35        0.0%
BITSFR35             0      0       0      36        0.0%
SFR35                0      0       0      36        0.0%
BITSFR36             0      0       0      37        0.0%
SFR36                0      0       0      37        0.0%
BITSFR37             0      0       0      38        0.0%
SFR37                0      0       0      38        0.0%
BITSFR38             0      0       0      39        0.0%
SFR38                0      0       0      39        0.0%
BITSFR39             0      0       0      40        0.0%
SFR39                0      0       0      40        0.0%
BITSFR40             0      0       0      41        0.0%
SFR40                0      0       0      41        0.0%
BITSFR41             0      0       0      42        0.0%
SFR41                0      0       0      42        0.0%
BITSFR42             0      0       0      43        0.0%
SFR42                0      0       0      43        0.0%
BITSFR43             0      0       0      44        0.0%
SFR43                0      0       0      44        0.0%
BITSFR44             0      0       0      45        0.0%
SFR44                0      0       0      45        0.0%
BITSFR45             0      0       0      46        0.0%
SFR45                0      0       0      46        0.0%
BITSFR46             0      0       0      47        0.0%
SFR46                0      0       0      47        0.0%
BITSFR47             0      0       0      48        0.0%
SFR47                0      0       0      48        0.0%
BITSFR48             0      0       0      49        0.0%
SFR48                0      0       0      49        0.0%
BITSFR49             0      0       0      50        0.0%
SFR49                0      0       0      50        0.0%
BITSFR50             0      0       0      51        0.0%
SFR50                0      0       0      51        0.0%
BITSFR51             0      0       0      52        0.0%
SFR51                0      0       0      52        0.0%
BITSFR52             0      0       0      53        0.0%
SFR52                0      0       0      53        0.0%
BITSFR53             0      0       0      54        0.0%
SFR53                0      0       0      54        0.0%
BITSFR54             0      0       0      55        0.0%
SFR54                0      0       0      55        0.0%
BITSFR55             0      0       0      56        0.0%
SFR55                0      0       0      56        0.0%
BITSFR56             0      0       0      57        0.0%
SFR56                0      0       0      57        0.0%
BITSFR57             0      0       0      58        0.0%
SFR57                0      0       0      58        0.0%
BITSFR58             0      0       0      59        0.0%
SFR58                0      0       0      59        0.0%
BITSFR59             0      0       0      60        0.0%
SFR59                0      0       0      60        0.0%
BITSFR60             0      0       0      61        0.0%
SFR60                0      0       0      61        0.0%
BITSFR61             0      0       0      62        0.0%
SFR61                0      0       0      62        0.0%
BITSFR62             0      0       0      63        0.0%
SFR62                0      0       0      63        0.0%
BITSFR63             0      0       0      64        0.0%
SFR63                0      0       0      64        0.0%


Microchip Technology PIC Macro Assembler V2.40 build 20220703182018 
Symbol Table                                                                                   Thu Jan 18 09:41:44 2024

                           l93 02C0                             l87 0244                             l96 026C  
                           l99 0277                   ___awdiv@sign 0076            __Umul8_16@word_mpld 0076  
                          l102 0238                            l111 024C                            l114 02A5  
                          l123 0337                            l140 0257                            l108 023E  
                          l134 0255                            l143 025F                            l152 0389  
                          l161 026B                            l137 0292                            l155 0284  
                          l149 0309                            l158 0263                            l514 0502  
                          l507 0517                            l517 0517                            l710 07FC  
                          l466 043C                            l722 07F0                            l731 02E3  
                          l716 077C                            l479 03DD                            l760 0573  
                          l729 02D3                            l754 053A                            l756 05C1  
                          l767 058D                            l768 0599                            u800 0277  
                          u801 0276                            u810 0334                            u811 0333  
                          u820 025C                            u821 025B                            u910 042E  
                          u830 03E3                            u911 042D                            u831 03E2  
                          u815 0330                            u920 0433                            u840 03EE  
                          u921 0432                            u905 0424                            u841 03ED  
                          u850 03FF                            u930 0390                            u851 03FE  
                          u931 038F                            u940 039B                            u941 039A  
                          u870 040F                            u950 03A6                            u790 0271  
                          u871 040E                            u951 03A5                            u791 0270  
                          u865 0403                            u890 041E                            u970 03B6  
                          u891 041D                            u971 03B5                            u980 03C0  
                          u885 0410                            u981 03BF                            u965 03AA  
                          u895 041A                            u985 03BC                            u995 03C5  
                 ___awmod@sign 0021                            wreg 0009                   ___flmul@aexp 0032  
                 ___flmul@bexp 0033                   ___flmul@sign 002D                   ___flmul@temp 0038  
                 ___flmul@prod 0034                   _BAUD2CONbits 061C                   ___fltol@exp1 0043  
                         l1301 0323                           l1311 025C                           l1303 0327  
                         l1321 03EA                           l1313 03DE                           l1305 0334  
                         l1401 02CF                           l1331 03FF                           l1323 03EE  
                         l1315 03DF                           l1411 02A6                           l1403 02DA  
                         l1309 0257                           l1341 041E                           l1333 0402  
                         l1325 03F3                           l1317 03E3                           l1261 026C  
                         l1421 02B8                           l1413 02A8                           l1405 02DF  
                         l1501 04E2                           l1351 0433                           l1343 0422  
                         l1335 0407                           l1327 03F7                           l1319 03E8  
                         l1431 028A                           l1263 0271                           l1271 023C  
                         l1423 02BC                           l1415 02A9                           l1511 0507  
                         l1503 04F2                           l1441 027C                           l1353 0438  
                         l1345 0423                           l1337 040B                           l1329 03F9  
                         l1361 0390                           l1433 028C                           l1281 029B  
                         l1265 0233                           l1273 0246                           l1425 02BD  
                         l1417 02AB                           l1409 02A6                           l1601 0745  
                         l1521 05CC                           l1513 050C                           l1443 027F  
                         l1451 02E6                           l1347 0428                           l1339 040F  
                         l1371 03A6                           l1363 0395                           l1435 028D  
                         l1283 029E                           l1267 0236                           l1275 0249  
                         l1291 030B                           l1427 02BF                           l1419 02B6  
                         l1603 074C                           l1611 075C                           l1531 05E1  
                         l1523 05CD                           l1515 05C2                           l1445 0280  
                         l1453 02F5                           l1349 042E                           l1381 03C0  
                         l1373 03A9                           l1365 0397                           l1357 038A  
                         l1437 0290                           l1429 0285                           l1285 02A1  
                         l1277 0293                           l1269 0239                           l1293 030E  
                         l1613 0760                           l1605 0750                           l1541 05F5  
                         l1533 05E9                           l1525 05D2                           l1517 05C6  
                         l1509 04F9                           l1701 0441                           l1439 0278  
                         l1455 02F9                           l1391 03D9                           l1383 03C4  
                         l1375 03AE                           l1367 039B                           l1359 038C  
                         l1463 033A                           l1287 02A3                           l1279 0296  
                         l1295 0311                           l1447 023F                           l1631 07AA  
                         l1623 0781                           l1615 0761                           l1607 0751  
                         l1551 0611                           l1543 05FA                           l1535 05EE  
                         l1527 05D7                           l1519 05C8                           l1711 044F  
                         l1703 0444                           l1457 0260                           l1449 02E4  
                         l1385 03C9                           l1377 03B2                           l1369 03A0  
                         l1297 0316                           l1465 024D                           l1641 07DC  
                         l1625 0786                           l1633 07AE                           l1617 0765  
                         l1609 0758                           l1561 062F                           l1553 0616  
                         l1545 05FF                           l1537 05F0                           l1529 05DF  
                         l1481 04B1                           l1721 0492                           l1713 0456  
                         l1705 0447                           l1459 0267                           l1379 03B6  
                         l1387 03CF                           l1299 0319                           l1395 02C2  
                         l1651 07F4                           l1643 07DE                           l1635 07BB  
                         l1627 078E                           l1619 0779                           l1571 0686  
                         l1563 063C                           l1555 061B                           l1547 0607  
                         l1539 05F4                           l1491 04D4                           l1723 049F  
                         l1715 045E                           l1707 044A                           l1389 03D4  
                         l1397 02C4                           l1645 07E9                           l1637 07C5  
                         l1629 0792                           l1581 06B7                           l1573 0693  
                         l1565 0654                           l1549 0609                           l1493 04D6  
                         l1485 04BA                           l1661 0532                           l1717 048B  
                         l1709 044D                           l1399 02CB                           l1647 07ED  
                         l1639 07D3                           l1591 06F4                           l1583 06BE  
                         l1575 069A                           l1567 0661                           l1559 0624  
                         l1495 04DA                           l1487 04CB                           l1479 04A7  
                         l1671 0559                           l1663 0542                           l1655 0519  
                         l1719 048F                           l1649 07EE                           l1593 0706  
                         l1585 06D0                           l1577 06A5                           l1569 0679  
                         l1489 04CC                           l1681 0583                           l1673 0560  
                         l1657 051E                           l1595 071B                           l1587 06D7  
                         l1579 06AC                           l1691 05B4                           l1683 0587  
                         l1675 0564                           l1667 054B                           l1659 0522  
                         l1597 0732                           l1589 06E9                           l1693 05B8  
                         l1685 0591                           l1677 056C                           l1669 054E  
                         l1599 0739                           l1695 05B9                           l1687 059B  
                         l1679 057A                           l1689 05AF                           l1699 043D  
                         STR_1 0800                           u1000 03CF                           u1001 03CE  
                         u1010 03D4                           u1011 03D3                           u1020 02CF  
                         u1100 04E1                           u1021 02CE                           u1101 04E0  
                         u1040 02DF                           u1200 05F4                           u1120 04F1  
                         u1041 02DE                           u1201 05F3                           u1121 04F0  
                         u1050 0309                           u1210 05FA                           u1130 04F8  
                         u1051 0308                           u1035 02D4                           u1211 05F9  
                         u1131 04F7                           u1115 04E3                           u1060 0267  
                         u1220 05FF                           u1061 0266                           u1221 05FE  
                         u1310 0750                           u1230 0616                           u1150 0507  
                         u1070 04B1                           u1311 074F                           u1231 0615  
                         u1151 0506                           u1071 04B0                           u1400 07BB  
                         u1240 061B                           u1160 050C                           u1080 04C7  
                         u1401 07BA                           u1305 0746                           u1241 061A  
                         u1161 050B                           u1145 04FA                           u1410 07D3  
                         u1330 0760                           u1170 05CC                           u1090 04DA  
                         u1411 07D2                           u1331 075F                           u1171 05CB  
                         u1091 04D9                           u1420 07ED                           u1340 0765  
                         u1180 05D2                           u1421 07EC                           u1405 07B7  
                         u1341 0764                           u1325 0752                           u1181 05D1  
                         u1085 04C3                           u1350 0779                           u1270 0711  
                         u1190 05D7                           u1510 0587                           u1430 051E  
                         u1415 07CF                           u1351 0778                           u1255 0694  
                         u1191 05D6                           u1511 0586                           u1431 051D  
                         u1360 0780                           u1280 0728                           u1520 058D  
                         u1440 0522                           u1361 077F                           u1265 06BF  
                         u1521 058C                           u1505 057D                           u1441 0521  
                         u1370 0786                           u1530 0591                           u1450 0542  
                         u1371 0785                           u1275 070D                           u1531 0590  
                         u1451 0541                           u1380 0792                           u1540 05A5  
                         u1381 0791                           u1285 0724                           u1390 07A0  
                         u1550 05B4                           u1470 055F                           u1295 0733  
                         u1551 05B3                           u1471 055E                           u1560 05B8  
                         u1561 05B7                           u1545 05A1                           u1465 0553  
                         u1490 0579                           u1395 079C                           u1491 0578  
                         u1485 056D                           u1577 0498                           _main 043D  
                         fsr0h 0005                           fsr1h 0007                           indf0 0000  
                         fsr0l 0004                           indf1 0001                           fsr1l 0006  
                         btemp 007E               __end_of_I2C_read 02A6               __end_of_I2C_wait 0278  
                         start 0002               __end_of_I2C_stop 023F             EUSART_write@txData 0070  
             ??_I2C_read_query 0073                  I2C_write@data 0070                  ___fltol@sign1 0042  
                        ?_main 0070                          _ADPCH 1D1F                          _ADREF 1D2B  
              __end_of___awdiv 043D                          _ADRES 1D1D                __end_of___awmod 03DE  
              __end_of___flmul 07FD                  ?_EUSART_setup 0070                  ?_EUSART_print 0071  
              __end_of___fltol 0518                ___awdiv@divisor 0070                  ?_EUSART_write 0070  
              ___awdiv@counter 0075                          _PORTA 000C                          _TRISA 0012  
                        main@a 0046                          main@r 0048                    _Analog_read 0260  
            __end_of_I2C_setup 02C1                          status 0003              __end_of_I2C_start 0239  
                        wtemp0 007E              __end_of_I2C_write 024D                __initialization 07FD  
     __end_of_EUSART_print_num 038A                   __end_of_main 04A7                 ??_EUSART_setup 0070  
               ??_EUSART_print 0073                 ??_EUSART_write 0070                         ??_main 0044  
             ___awdiv@dividend 0072                         _ANSELA 1E8C                         _RA1PPS 1D8D  
                       _RA2PPS 1D8E                         _RA5PPS 1D91                         _TX2REG 0617  
             __end_of___xxtofl 05C2                      ??___awdiv 0074                      ??___awmod 007D  
                    ??___flmul 0028                      ??___fltol 003E               ___awdiv@quotient 0077  
              ___awmod@divisor 0079       I2C_MCP23008_read@rx_data 0020                ___awmod@counter 0020  
                 _Analog_setup 0278                      ?_I2C_read 0070                      ?_I2C_wait 0070  
                    ?_I2C_stop 0070              __end_of_WDT_setup 0245                   ___xxtofl@arg 007A  
                 ___xxtofl@exp 0079                   ___xxtofl@val 0070        __end_of__initialization 07FD  
                   ___fltol@f1 003A                 __pcstackCOMMON 0070                     ??_I2C_read 0070  
                   ??_I2C_wait 0070                     ??_I2C_stop 0070           __end_of_EUSART_setup 0293  
         __end_of_EUSART_print 030A           __end_of_EUSART_write 0260              __end_of__Umul8_16 02E4  
                   __pmaintext 043D                      ?___xxtofl 0070                        _SP2BRGH 0619  
                      _SP2BRGL 0618                        _SSP1ADD 068D                        _SSP1BUF 068C  
                 ?_Analog_read 0070                      _I2C_setup 02A6                      _I2C_start 0233  
                    _I2C_write 0245              ?_EUSART_print_num 0070                        ___awdiv 03DE  
                      ___awmod 038A                        ___flmul 05C2                        ___fltol 04A7  
           ??_EUSART_print_num 0022                        __ptext1 0518                        __ptext2 04A7  
                      __ptext3 05C2                        __ptext4 02C1                        __ptext5 023F  
                      __ptext6 02A6                        __ptext7 024D                        __ptext8 030A  
                      __ptext9 0245                     ??___xxtofl 0074               ___awmod@dividend 007B  
         end_of_initialization 07FD                     ?_I2C_setup 0070                     ?_I2C_start 0070  
                   ?_I2C_write 0070                  EUSART_print@c 0076                  ___xxtofl@sign 0078  
                    _TRISAbits 0012                      _WDT_setup 023F                    ___flmul@grs 002E  
                 _EUSART_setup 0285                   _EUSART_print 02E4                   _EUSART_write 0256  
          start_initialization 07FD                     ?_WDT_setup 0070                    ??_I2C_setup 0070  
                  ??_I2C_start 0070                    ??_I2C_write 0070                      __Umul8_16 02C1  
                    ___flmul@a 0024                      ___flmul@b 0020                      ___latbits 0002  
                __pcstackBANK0 0020                       ?___awdiv 0070                       ?___awmod 0079  
                     ?___flmul 0020                       ?___fltol 003A                     ?__Umul8_16 0070  
               _I2C_read_query 030A                       _I2C_read 0293                       _I2C_wait 026C  
                     _I2C_stop 0239                    ??_WDT_setup 0070              _I2C_MCP23008_read 024D  
                     _PIR3bits 008F             I2C_read_query@data 0071                    I2C_read@tmp 0070  
           ?_I2C_MCP23008_read 0070                       _SSP1CON2 0691                       _SSP1STAT 068F  
       __end_of_I2C_read_query 0338                     _ADCON0bits 1D26            ??_I2C_MCP23008_read 0077  
                ?_Analog_setup 0070      __end_of_I2C_MCP23008_read 0256         EUSART_print_num@number 0027  
                  ??__Umul8_16 0072                ?_I2C_read_query 0071                 ??_Analog_setup 0070  
                     ___xxtofl 0518             EUSART_print@string 0071                       __ptext10 0239  
                     __ptext11 0233                       __ptext20 0278                       __ptext12 0293  
                     __ptext21 0260                       __ptext13 026C                       __ptext14 0285  
                     __ptext15 0338                       __ptext16 038A                       __ptext17 03DE  
                     __ptext18 02E4                       __ptext19 0256                   _SSP1CON1bits 0690  
                 _SSP1CON2bits 0691                I2C_read_query@i 0074          I2C_read_query@address 0076  
                   _RC2STAbits 061A                     _ODCONAbits 1E8E                   _SSP1STATbits 068F  
             _EUSART_print_num 0338                  ??_Analog_read 0072              EUSART_print_num@c 0024  
            EUSART_print_num@d 0025              EUSART_print_num@u 0026                  __pstringtext1 0800  
                __pstringtext2 0000         __Umul8_16@multiplicand 0070                     _SSP1DATPPS 1E48  
                   _SSP1CLKPPS 1E47                     _WDTCONbits 018C                     _TX2STAbits 061B  
I2C_read_query@number_of_bytes 0072           __Umul8_16@multiplier 0078           __end_of_Analog_setup 0285  
          __end_of_Analog_read 026C              __Umul8_16@product 0074  
